
Air_sensor_module.elf:     file format elf32-littleriscv
Air_sensor_module.elf
architecture: riscv:rv32, flags 0x00000112:
EXEC_P, HAS_SYMS, D_PAGED
start address 0x00000000

Program Header:
    LOAD off    0x00001000 vaddr 0x00000000 paddr 0x00000000 align 2**12
         filesz 0x00002c64 memsz 0x00002c64 flags r-x
    LOAD off    0x00004000 vaddr 0x20000000 paddr 0x00002c64 align 2**12
         filesz 0x00000040 memsz 0x00000188 flags rw-
    LOAD off    0x00004700 vaddr 0x20000700 paddr 0x20000700 align 2**12
         filesz 0x00000000 memsz 0x00000100 flags rw-

Sections:
Idx Name          Size      VMA       LMA       File off  Algn
  0 .init         000000a0  00000000  00000000  00001000  2**2
                  CONTENTS, ALLOC, LOAD, READONLY, CODE
  1 .text         00002bc4  000000a0  000000a0  000010a0  2**2
                  CONTENTS, ALLOC, LOAD, READONLY, CODE
  2 .fini         00000000  00002c64  00002c64  00004040  2**0
                  CONTENTS, ALLOC, LOAD, CODE
  3 .dalign       00000000  20000000  20000000  00004040  2**0
                  CONTENTS
  4 .dlalign      00000000  00002c64  00002c64  00004040  2**0
                  CONTENTS
  5 .data         00000040  20000000  00002c64  00004000  2**2
                  CONTENTS, ALLOC, LOAD, DATA
  6 .bss          00000148  20000040  00002ca4  00004040  2**2
                  ALLOC
  7 .stack        00000100  20000700  20000700  00004700  2**0
                  ALLOC
  8 .debug_info   0000f6c6  00000000  00000000  00004040  2**0
                  CONTENTS, READONLY, DEBUGGING
  9 .debug_abbrev 00002e61  00000000  00000000  00013706  2**0
                  CONTENTS, READONLY, DEBUGGING
 10 .debug_aranges 00000708  00000000  00000000  00016568  2**3
                  CONTENTS, READONLY, DEBUGGING
 11 .debug_ranges 000008c8  00000000  00000000  00016c70  2**3
                  CONTENTS, READONLY, DEBUGGING
 12 .debug_line   0000a084  00000000  00000000  00017538  2**0
                  CONTENTS, READONLY, DEBUGGING
 13 .debug_str    0000244f  00000000  00000000  000215bc  2**0
                  CONTENTS, READONLY, DEBUGGING
 14 .comment      00000033  00000000  00000000  00023a0b  2**0
                  CONTENTS, READONLY
 15 .debug_frame  00001210  00000000  00000000  00023a40  2**2
                  CONTENTS, READONLY, DEBUGGING
 16 .debug_loc    000035d7  00000000  00000000  00024c50  2**0
                  CONTENTS, READONLY, DEBUGGING
SYMBOL TABLE:
00000000 l    d  .init	00000000 .init
000000a0 l    d  .text	00000000 .text
00002c64 l    d  .fini	00000000 .fini
20000000 l    d  .dalign	00000000 .dalign
00002c64 l    d  .dlalign	00000000 .dlalign
20000000 l    d  .data	00000000 .data
20000040 l    d  .bss	00000000 .bss
20000700 l    d  .stack	00000000 .stack
00000000 l    d  .debug_info	00000000 .debug_info
00000000 l    d  .debug_abbrev	00000000 .debug_abbrev
00000000 l    d  .debug_aranges	00000000 .debug_aranges
00000000 l    d  .debug_ranges	00000000 .debug_ranges
00000000 l    d  .debug_line	00000000 .debug_line
00000000 l    d  .debug_str	00000000 .debug_str
00000000 l    d  .comment	00000000 .comment
00000000 l    d  .debug_frame	00000000 .debug_frame
00000000 l    d  .debug_loc	00000000 .debug_loc
00000000 l    df *ABS*	00000000 ch32v00x_it.c
00000000 l    df *ABS*	00000000 main.c
00000000 l    df *ABS*	00000000 system_ch32v00x.c
00000000 l    df *ABS*	00000000 ch32v00x_gpio.c
00000000 l    df *ABS*	00000000 ch32v00x_i2c.c
00000000 l    df *ABS*	00000000 ch32v00x_misc.c
00000000 l    df *ABS*	00000000 ch32v00x_pwr.c
00000000 l    df *ABS*	00000000 ch32v00x_rcc.c
20000018 l     O .data	00000014 ADCPrescTable
2000002c l     O .data	00000010 APBAHBPrescTable
00000000 l    df *ABS*	00000000 ch32v00x_usart.c
00000000 l    df *ABS*	00000000 SCD4X_HAL.c
00000f0a l     F .text	0000004c scd4x_generate_crc.constprop.0
00000000 l    df *ABS*	00000000 RS485_SLAVE_HAL.c
00000000 l    df *ABS*	00000000 RS485_HAL.c
2000017c l     O .bss	00000004 conf
00000000 l    df *ABS*	00000000 I2C_HAL.c
00000000 l    df *ABS*	00000000 BH1750_HAL.c
20000180 l     O .bss	00000001 bh1750_addr
20000181 l     O .bss	00000001 state
00000000 l    df *ABS*	00000000 debug.c
20000182 l     O .bss	00000002 p_ms
20000184 l     O .bss	00000001 p_us
00000000 l    df *ABS*	00000000 wchprintf.c
00000000 l    df *ABS*	00000000 mulsf3.c
00000000 l    df *ABS*	00000000 subsf3.c
00000000 l    df *ABS*	00000000 fixunssfsi.c
00000000 l    df *ABS*	00000000 floatunsisf.c
00000000 l    df *ABS*	00000000 libgcc2.c
00000000 l    df *ABS*	00000000 memcpy.c
00000000 l    df *ABS*	00000000 libgcc2.c
00001ee8  w    F .text	00000004 printDouble
00000bbc g     F .text	00000082 PWR_EnterSTANDBYMode
000018ee g     F .text	000001ec I2C_HAL_master_read
20000164 g     O .bss	00000002 humi
00001eec  w    F .text	00000358 print
00002244  w    F .text	00000024 printf
20000840 g       .data	00000000 __global_pointer$
20000161 g     O .bss	00000001 Rxfinish_FLag
0000078c  w      .text	00000000 TIM1_CC_IRQHandler
00001b40 g     F .text	0000003c bh1750_set_measurement_time
00000aec g     F .text	00000008 I2C_ReceiveData
0000014c g     F .text	00000002 HardFault_Handler
00001dd6  w    F .text	0000010e printInt
0000078c  w      .text	00000000 SysTick_Handler
00000b54 g     F .text	00000054 NVIC_Init
0000078c  w      .text	00000000 PVD_IRQHandler
0000157a g     F .text	00000024 RS485_Send_Mode
0000014a g     F .text	00000002 NMI_Handler
00000ec4 g     F .text	0000000a USART_GetFlagStatus
20000040 g       .bss	00000000 _sbss
00000100 g       *ABS*	00000000 __stack_size
000024f8 g     F .text	00000386 .hidden __subsf3
000000aa g     F .text	0000000a .hidden __riscv_restore_2
00001000 g     F .text	00000094 scd4x_read_resp
00002a10 g     F .text	000000d2 memcpy
000008f6 g     F .text	000000c4 GPIO_PinRemapConfig
00001ee4  w    F .text	00000004 printLongLongInt
20000014 g     O .data	00000004 SystemCoreClock
00001134 g     F .text	00000068 scd4x_read_measurement
00000ebc g     F .text	00000008 USART_ReceiveData
000000d4 g     F .text	0000002c .hidden __udivsi3
000000a0 g       .init	00000000 _einit
00000d00 g     F .text	0000001e RCC_APB2PeriphClockCmd
00000816 g     F .text	000000d6 GPIO_Init
20000162 g     O .bss	00000002 co2
20000174 g     O .bss	00000004 NVIC_Priority_Group
0000078c  w      .text	00000000 SPI1_IRQHandler
00000e68 g     F .text	00000016 USART_Cmd
000000a0 g     F .text	0000000a .hidden __riscv_save_1
000000aa g     F .text	0000000a .hidden __riscv_restore_0
0000078c  w      .text	00000000 AWU_IRQHandler
0000078c  w      .text	00000000 EXTI7_0_IRQHandler
00001200 g     F .text	0000001a scd4x_wake_up
2000016e g     O .bss	00000002 temp
20000170 g     O .bss	00000004 temperature
000012de g     F .text	0000002c CRC_Check
00000d1e g     F .text	0000001e RCC_APB1PeriphClockCmd
00001aea g     F .text	00000018 bh1750_power_down
20000700 g       .stack	00000000 _heap_end
00001be4 g     F .text	0000003a Delay_Us
00001b7c g     F .text	00000034 bh1750_read
0000078c  w      .text	00000000 DMA1_Channel4_IRQHandler
00000ae8 g     F .text	00000004 I2C_SendData
0000078c  w      .text	00000000 ADC1_IRQHandler
000009ba g     F .text	000000e2 I2C_Init
00001720 g     F .text	000000ae I2C_HAL_ping
000017ce g     F .text	00000120 I2C_HAL_master_write
20000188 g       .bss	00000000 _ebss
00000ece g     F .text	0000003c USART_GetITStatus
20000000 g     O .data	00000001 Device_Address
0000078c  w      .text	00000000 DMA1_Channel7_IRQHandler
000015c2 g     F .text	0000004a Send_RS485_Data
20000178 g     O .bss	00000002 crc
00001bb0 g     F .text	00000034 Delay_Init
00000d5a g     F .text	00000020 RCC_GetFlagStatus
000008ec g     F .text	0000000a GPIO_WriteBit
2000016c g     O .bss	00000002 lux
00000100 g     F .text	00000008 .hidden __umodsi3
00000ab4 g     F .text	0000001a I2C_GenerateSTART
0000078c  w      .text	00000000 I2C1_EV_IRQHandler
20000168 g     O .bss	00000004 humidity
000011b8 g     F .text	0000002e scd4x_get_data_ready_status
00000c64 g     F .text	0000009c RCC_GetClocksFreq
0000078c  w      .text	00000000 DMA1_Channel6_IRQHandler
000029a2 g     F .text	0000006e .hidden __clzsi2
00000f56 g     F .text	00000010 scd4x_init
00000d9c g     F .text	000000cc USART_Init
0000125a g     F .text	00000084 RS485_Slave_Respone
0000078c  w      .text	00000000 RCC_IRQHandler
0000078c  w      .text	00000000 TIM1_TRG_COM_IRQHandler
0000078c  w      .text	00000000 DMA1_Channel1_IRQHandler
00000000 g       .init	00000000 _start
20000004 g     O .data	00000010 AHBPrescTable
00000b1c g     F .text	00000032 I2C_GetFlagStatus
00001cf0  w    F .text	000000e6 prints
00000e7e g     F .text	00000036 USART_ITConfig
000010dc g     F .text	0000001c scd4x_start_periodic_measurement
000000b4 g     F .text	00000014 .hidden __mulsi3
00000a9c g     F .text	00000018 I2C_Cmd
0000014e g     F .text	000000ac Shutdown_Device
20000000 g       .dalign	00000000 _data_vma
0000154e g     F .text	0000002c RS485_Change_Baudrate
00000af4 g     F .text	00000012 I2C_Send7bitAddress
00001688 g     F .text	00000098 I2C_HAL_Init
00000d7a g     F .text	00000022 USART_DeInit
00000c3e g     F .text	00000012 RCC_AdjustHSICalibrationValue
000001fa g     F .text	000003f8 main
00000f66 g     F .text	0000009a scd4x_send_command
0000078c  w      .text	00000000 DMA1_Channel5_IRQHandler
000000cc g     F .text	00000058 .hidden __divsi3
00001c1e g     F .text	0000003a Delay_Ms
00002268 g     F .text	00000290 .hidden __mulsf3
0000119c g     F .text	0000001c scd4x_stop_periodic_measurement
00001b02 g     F .text	0000003e bh1750_setup
000010f8 g     F .text	0000003c scd4x_read_measurement_ticks
000005f2 g     F .text	00000132 SystemInit
00001ca8  w    F .text	00000048 printchar
00002b64 g     O .text	00000100 .hidden __clz_tab
00000000 g       .init	00000000 _sinit
0000078c  w      .text	00000000 DMA1_Channel3_IRQHandler
0000078c  w      .text	00000000 TIM1_UP_IRQHandler
000011e6 g     F .text	0000001a scd4x_reinit
0000078c  w      .text	00000000 WWDG_IRQHandler
0000078c  w      .text	00000000 TIM2_IRQHandler
20000800 g       .stack	00000000 _eusrstack
000000a0 g     F .text	0000000a .hidden __riscv_save_2
0000078c  w      .text	00000000 SW_Handler
0000121a g     F .text	00000040 Generate_CRC
0000078c  w      .text	00000000 TIM1_BRK_IRQHandler
00000eb4 g     F .text	00000008 USART_SendData
0000159e g     F .text	00000024 RS485_Receive_Mode
00001094 g     F .text	00000048 execute_command
00001c58 g     F .text	00000050 _write
20000040 g       .data	00000000 _edata
00001ada g     F .text	00000010 bh1750_init
20000160 g     O .bss	00000001 Rx_size
20000188 g       .bss	00000000 _end
0000130a g     F .text	00000244 RS485_Init
00002c64 g       .dlalign	00000000 _data_lma
00000724 g     F .text	00000068 SystemCoreClockUpdate
000028d4 g     F .text	000000ce .hidden __floatunsisf
20000064 g     O .bss	000000fc Rx_buffer
00000124 g     F .text	00000024 .hidden __modsi3
0000078c  w      .text	00000000 DMA1_Channel2_IRQHandler
0000078e  w      .text	00000000 handle_reset
0000287e g     F .text	00000056 .hidden __fixunssfsi
000000a0 g     F .text	0000000a .hidden __riscv_save_0
0000078c  w      .text	00000000 FLASH_IRQHandler
0000160c g     F .text	0000007c USART1_IRQHandler
00000c50 g     F .text	00000014 RCC_LSICmd
00000ace g     F .text	0000001a I2C_AcknowledgeConfig
00000b06 g     F .text	00000016 I2C_CheckEvent
00000d3c g     F .text	0000001e RCC_APB2PeriphResetCmd
0000078c  w      .text	00000000 I2C1_ER_IRQHandler
00000b4e g     F .text	00000006 NVIC_PriorityGroupConfig
000000aa g     F .text	0000000a .hidden __riscv_restore_1
00000ba8 g     F .text	00000014 PWR_AutoWakeUpCmd
20000040 g     O .bss	00000024 RS485_Conf



Disassembly of section .init:

00000000 <_sinit>:
   0:	78e0006f          	j	78e <handle_reset>
   4:	0000                	unimp
   6:	0000                	unimp
   8:	014a                	slli	sp,sp,0x12
   a:	0000                	unimp
   c:	014c                	addi	a1,sp,132
	...
  2e:	0000                	unimp
  30:	078c                	addi	a1,sp,960
  32:	0000                	unimp
  34:	0000                	unimp
  36:	0000                	unimp
  38:	078c                	addi	a1,sp,960
  3a:	0000                	unimp
  3c:	0000                	unimp
  3e:	0000                	unimp
  40:	078c                	addi	a1,sp,960
  42:	0000                	unimp
  44:	078c                	addi	a1,sp,960
  46:	0000                	unimp
  48:	078c                	addi	a1,sp,960
  4a:	0000                	unimp
  4c:	078c                	addi	a1,sp,960
  4e:	0000                	unimp
  50:	078c                	addi	a1,sp,960
  52:	0000                	unimp
  54:	078c                	addi	a1,sp,960
  56:	0000                	unimp
  58:	078c                	addi	a1,sp,960
  5a:	0000                	unimp
  5c:	078c                	addi	a1,sp,960
  5e:	0000                	unimp
  60:	078c                	addi	a1,sp,960
  62:	0000                	unimp
  64:	078c                	addi	a1,sp,960
  66:	0000                	unimp
  68:	078c                	addi	a1,sp,960
  6a:	0000                	unimp
  6c:	078c                	addi	a1,sp,960
  6e:	0000                	unimp
  70:	078c                	addi	a1,sp,960
  72:	0000                	unimp
  74:	078c                	addi	a1,sp,960
  76:	0000                	unimp
  78:	078c                	addi	a1,sp,960
  7a:	0000                	unimp
  7c:	078c                	addi	a1,sp,960
  7e:	0000                	unimp
  80:	160c                	addi	a1,sp,800
  82:	0000                	unimp
  84:	078c                	addi	a1,sp,960
  86:	0000                	unimp
  88:	078c                	addi	a1,sp,960
  8a:	0000                	unimp
  8c:	078c                	addi	a1,sp,960
  8e:	0000                	unimp
  90:	078c                	addi	a1,sp,960
  92:	0000                	unimp
  94:	078c                	addi	a1,sp,960
  96:	0000                	unimp
  98:	078c                	addi	a1,sp,960
  9a:	0000                	unimp
  9c:	0000                	unimp
	...

Disassembly of section .text:

000000a0 <__riscv_save_0>:
      a0:	1151                	addi	sp,sp,-12
      a2:	c026                	sw	s1,0(sp)
      a4:	c222                	sw	s0,4(sp)
      a6:	c406                	sw	ra,8(sp)
      a8:	8282                	jr	t0

000000aa <__riscv_restore_0>:
      aa:	4482                	lw	s1,0(sp)
      ac:	4412                	lw	s0,4(sp)
      ae:	40a2                	lw	ra,8(sp)
      b0:	0131                	addi	sp,sp,12
      b2:	8082                	ret

000000b4 <__mulsi3>:
      b4:	862a                	mv	a2,a0
      b6:	4501                	li	a0,0
      b8:	0015f693          	andi	a3,a1,1
      bc:	c291                	beqz	a3,c0 <__mulsi3+0xc>
      be:	9532                	add	a0,a0,a2
      c0:	8185                	srli	a1,a1,0x1
      c2:	0606                	slli	a2,a2,0x1
      c4:	f9f5                	bnez	a1,b8 <__mulsi3+0x4>
      c6:	8082                	ret
      c8:	0000                	unimp
	...

000000cc <__divsi3>:
      cc:	02054e63          	bltz	a0,108 <__umodsi3+0x8>
      d0:	0405c363          	bltz	a1,116 <__umodsi3+0x16>

000000d4 <__udivsi3>:
      d4:	862e                	mv	a2,a1
      d6:	85aa                	mv	a1,a0
      d8:	557d                	li	a0,-1
      da:	c215                	beqz	a2,fe <__udivsi3+0x2a>
      dc:	4685                	li	a3,1
      de:	00b67863          	bgeu	a2,a1,ee <__udivsi3+0x1a>
      e2:	00c05663          	blez	a2,ee <__udivsi3+0x1a>
      e6:	0606                	slli	a2,a2,0x1
      e8:	0686                	slli	a3,a3,0x1
      ea:	feb66ce3          	bltu	a2,a1,e2 <__udivsi3+0xe>
      ee:	4501                	li	a0,0
      f0:	00c5e463          	bltu	a1,a2,f8 <__udivsi3+0x24>
      f4:	8d91                	sub	a1,a1,a2
      f6:	8d55                	or	a0,a0,a3
      f8:	8285                	srli	a3,a3,0x1
      fa:	8205                	srli	a2,a2,0x1
      fc:	faf5                	bnez	a3,f0 <__udivsi3+0x1c>
      fe:	8082                	ret

00000100 <__umodsi3>:
     100:	8286                	mv	t0,ra
     102:	3fc9                	jal	d4 <__udivsi3>
     104:	852e                	mv	a0,a1
     106:	8282                	jr	t0
     108:	40a00533          	neg	a0,a0
     10c:	0005d763          	bgez	a1,11a <__umodsi3+0x1a>
     110:	40b005b3          	neg	a1,a1
     114:	b7c1                	j	d4 <__udivsi3>
     116:	40b005b3          	neg	a1,a1
     11a:	8286                	mv	t0,ra
     11c:	3f65                	jal	d4 <__udivsi3>
     11e:	40a00533          	neg	a0,a0
     122:	8282                	jr	t0

00000124 <__modsi3>:
     124:	8286                	mv	t0,ra
     126:	0005c763          	bltz	a1,134 <__modsi3+0x10>
     12a:	00054963          	bltz	a0,13c <__modsi3+0x18>
     12e:	375d                	jal	d4 <__udivsi3>
     130:	852e                	mv	a0,a1
     132:	8282                	jr	t0
     134:	40b005b3          	neg	a1,a1
     138:	fe055be3          	bgez	a0,12e <__modsi3+0xa>
     13c:	40a00533          	neg	a0,a0
     140:	3f51                	jal	d4 <__udivsi3>
     142:	40b00533          	neg	a0,a1
     146:	8282                	jr	t0
	...

0000014a <NMI_Handler>:
     14a:	a001                	j	14a <NMI_Handler>

0000014c <HardFault_Handler>:
     14c:	a001                	j	14c <HardFault_Handler>

0000014e <Shutdown_Device>:
     14e:	f53ff2ef          	jal	t0,a0 <__riscv_save_0>
     152:	1151                	addi	sp,sp,-12
     154:	c002                	sw	zero,0(sp)
     156:	c202                	sw	zero,4(sp)
     158:	c402                	sw	zero,8(sp)
     15a:	042010ef          	jal	ra,119c <scd4x_stop_periodic_measurement>
     15e:	18d010ef          	jal	ra,1aea <bh1750_power_down>
     162:	4585                	li	a1,1
     164:	03400513          	li	a0,52
     168:	399000ef          	jal	ra,d00 <RCC_APB2PeriphClockCmd>
     16c:	4585                	li	a1,1
     16e:	10000537          	lui	a0,0x10000
     172:	3ad000ef          	jal	ra,d1e <RCC_APB1PeriphClockCmd>
     176:	40011437          	lui	s0,0x40011
     17a:	57fd                	li	a5,-1
     17c:	80040513          	addi	a0,s0,-2048 # 40010800 <__global_pointer$+0x2000ffc0>
     180:	807c                	sh	a5,0(sp)
     182:	858a                	mv	a1,sp
     184:	02800793          	li	a5,40
     188:	c43e                	sw	a5,8(sp)
     18a:	2571                	jal	816 <GPIO_Init>
     18c:	858a                	mv	a1,sp
     18e:	40011537          	lui	a0,0x40011
     192:	2551                	jal	816 <GPIO_Init>
     194:	40040513          	addi	a0,s0,1024
     198:	858a                	mv	a1,sp
     19a:	20000437          	lui	s0,0x20000
     19e:	2da5                	jal	816 <GPIO_Init>
     1a0:	04040413          	addi	s0,s0,64 # 20000040 <_edata>
     1a4:	241e                	lhu	a5,8(s0)
     1a6:	4048                	lw	a0,4(s0)
     1a8:	448d                	li	s1,3
     1aa:	807c                	sh	a5,0(sp)
     1ac:	858a                	mv	a1,sp
     1ae:	47c1                	li	a5,16
     1b0:	c43e                	sw	a5,8(sp)
     1b2:	c226                	sw	s1,4(sp)
     1b4:	258d                	jal	816 <GPIO_Init>
     1b6:	281a                	lhu	a4,16(s0)
     1b8:	4448                	lw	a0,12(s0)
     1ba:	47c1                	li	a5,16
     1bc:	858a                	mv	a1,sp
     1be:	8078                	sh	a4,0(sp)
     1c0:	c43e                	sw	a5,8(sp)
     1c2:	c226                	sw	s1,4(sp)
     1c4:	2d89                	jal	816 <GPIO_Init>
     1c6:	240e                	lhu	a1,8(s0)
     1c8:	4048                	lw	a0,4(s0)
     1ca:	4605                	li	a2,1
     1cc:	720000ef          	jal	ra,8ec <GPIO_WriteBit>
     1d0:	4448                	lw	a0,12(s0)
     1d2:	280e                	lhu	a1,16(s0)
     1d4:	4601                	li	a2,0
     1d6:	716000ef          	jal	ra,8ec <GPIO_WriteBit>
     1da:	4505                	li	a0,1
     1dc:	275000ef          	jal	ra,c50 <RCC_LSICmd>
     1e0:	06100513          	li	a0,97
     1e4:	377000ef          	jal	ra,d5a <RCC_GetFlagStatus>
     1e8:	dd65                	beqz	a0,1e0 <Shutdown_Device+0x92>
     1ea:	4501                	li	a0,0
     1ec:	1bd000ef          	jal	ra,ba8 <PWR_AutoWakeUpCmd>
     1f0:	4505                	li	a0,1
     1f2:	1cb000ef          	jal	ra,bbc <PWR_EnterSTANDBYMode>
     1f6:	0131                	addi	sp,sp,12
     1f8:	bd4d                	j	aa <__riscv_restore_0>

000001fa <main>:
     1fa:	7139                	addi	sp,sp,-64
     1fc:	de06                	sw	ra,60(sp)
     1fe:	dc22                	sw	s0,56(sp)
     200:	da26                	sw	s1,52(sp)
     202:	0080                	addi	s0,sp,64
     204:	4505                	li	a0,1
     206:	149000ef          	jal	ra,b4e <NVIC_PriorityGroupConfig>
     20a:	200004b7          	lui	s1,0x20000
     20e:	2b19                	jal	724 <SystemCoreClockUpdate>
     210:	1a1010ef          	jal	ra,1bb0 <Delay_Init>
     214:	04048713          	addi	a4,s1,64 # 20000040 <_edata>
     218:	4785                	li	a5,1
     21a:	c31c                	sw	a5,0(a4)
     21c:	6789                	lui	a5,0x2
     21e:	58078793          	addi	a5,a5,1408 # 2580 <__subsf3+0x88>
     222:	cb5c                	sw	a5,20(a4)
     224:	400117b7          	lui	a5,0x40011
     228:	40078793          	addi	a5,a5,1024 # 40011400 <__global_pointer$+0x20010bc0>
     22c:	c35c                	sw	a5,4(a4)
     22e:	c75c                	sw	a5,12(a4)
     230:	47c1                	li	a5,16
     232:	ab1e                	sh	a5,16(a4)
     234:	92118793          	addi	a5,gp,-1759 # 20000161 <Rxfinish_FLag>
     238:	cf1c                	sw	a5,24(a4)
     23a:	46a1                	li	a3,8
     23c:	a716                	sh	a3,8(a4)
     23e:	82418693          	addi	a3,gp,-2012 # 20000064 <Rx_buffer>
     242:	cf54                	sw	a3,28(a4)
     244:	92018593          	addi	a1,gp,-1760 # 20000160 <Rx_size>
     248:	04048513          	addi	a0,s1,64
     24c:	d30c                	sw	a1,32(a4)
     24e:	0bc010ef          	jal	ra,130a <RS485_Init>
     252:	6561                	lui	a0,0x18
     254:	4589                	li	a1,2
     256:	6a050513          	addi	a0,a0,1696 # 186a0 <_data_lma+0x15a3c>
     25a:	42e010ef          	jal	ra,1688 <I2C_HAL_Init>
     25e:	4501                	li	a0,0
     260:	07b010ef          	jal	ra,1ada <bh1750_init>
     264:	4585                	li	a1,1
     266:	4505                	li	a0,1
     268:	09b010ef          	jal	ra,1b02 <bh1750_setup>
     26c:	04500513          	li	a0,69
     270:	0d1010ef          	jal	ra,1b40 <bh1750_set_measurement_time>
     274:	4e3000ef          	jal	ra,f56 <scd4x_init>
     278:	789000ef          	jal	ra,1200 <scd4x_wake_up>
     27c:	721000ef          	jal	ra,119c <scd4x_stop_periodic_measurement>
     280:	767000ef          	jal	ra,11e6 <scd4x_reinit>
     284:	659000ef          	jal	ra,10dc <scd4x_start_periodic_measurement>
     288:	316010ef          	jal	ra,159e <RS485_Receive_Mode>
     28c:	04048793          	addi	a5,s1,64
     290:	fef42423          	sw	a5,-24(s0)
     294:	92118793          	addi	a5,gp,-1759 # 20000161 <Rxfinish_FLag>
     298:	fef42223          	sw	a5,-28(s0)
     29c:	82418493          	addi	s1,gp,-2012 # 20000064 <Rx_buffer>
     2a0:	92018793          	addi	a5,gp,-1760 # 20000160 <Rx_size>
     2a4:	fef42623          	sw	a5,-20(s0)
     2a8:	ff240513          	addi	a0,s0,-14
     2ac:	fe040923          	sb	zero,-14(s0)
     2b0:	709000ef          	jal	ra,11b8 <scd4x_get_data_ready_status>
     2b4:	92c18513          	addi	a0,gp,-1748 # 2000016c <lux>
     2b8:	0c5010ef          	jal	ra,1b7c <bh1750_read>
     2bc:	ff244703          	lbu	a4,-14(s0)
     2c0:	c721                	beqz	a4,308 <main+0x10e>
     2c2:	92818613          	addi	a2,gp,-1752 # 20000168 <humidity>
     2c6:	93018593          	addi	a1,gp,-1744 # 20000170 <temperature>
     2ca:	92218513          	addi	a0,gp,-1758 # 20000162 <co2>
     2ce:	667000ef          	jal	ra,1134 <scd4x_read_measurement>
     2d2:	93018693          	addi	a3,gp,-1744 # 20000170 <temperature>
     2d6:	00003737          	lui	a4,0x3
     2da:	4288                	lw	a0,0(a3)
     2dc:	ae472583          	lw	a1,-1308(a4) # 2ae4 <memcpy+0xd4>
     2e0:	789010ef          	jal	ra,2268 <__mulsf3>
     2e4:	59a020ef          	jal	ra,287e <__fixunssfsi>
     2e8:	00003737          	lui	a4,0x3
     2ec:	92818313          	addi	t1,gp,-1752 # 20000168 <humidity>
     2f0:	92a19723          	sh	a0,-1746(gp) # 2000016e <temp>
     2f4:	ae472583          	lw	a1,-1308(a4) # 2ae4 <memcpy+0xd4>
     2f8:	00032503          	lw	a0,0(t1)
     2fc:	76d010ef          	jal	ra,2268 <__mulsf3>
     300:	57e020ef          	jal	ra,287e <__fixunssfsi>
     304:	92a19223          	sh	a0,-1756(gp) # 20000164 <humi>
     308:	fe442783          	lw	a5,-28(s0)
     30c:	2398                	lbu	a4,0(a5)
     30e:	0ff77713          	andi	a4,a4,255
     312:	db59                	beqz	a4,2a8 <main+0xae>
     314:	266010ef          	jal	ra,157a <RS485_Send_Mode>
     318:	2098                	lbu	a4,0(s1)
     31a:	0ff77713          	andi	a4,a4,255
     31e:	cb01                	beqz	a4,32e <main+0x134>
     320:	200006b7          	lui	a3,0x20000
     324:	2098                	lbu	a4,0(s1)
     326:	0006c683          	lbu	a3,0(a3) # 20000000 <_data_vma>
     32a:	16e69a63          	bne	a3,a4,49e <main+0x2a4>
     32e:	fec42783          	lw	a5,-20(s0)
     332:	fc242423          	sw	sp,-56(s0)
     336:	46a9                	li	a3,10
     338:	2398                	lbu	a4,0(a5)
     33a:	177d                	addi	a4,a4,-1
     33c:	9726                	add	a4,a4,s1
     33e:	2318                	lbu	a4,0(a4)
     340:	00e68963          	beq	a3,a4,352 <main+0x158>
     344:	2398                	lbu	a4,0(a5)
     346:	177d                	addi	a4,a4,-1
     348:	9726                	add	a4,a4,s1
     34a:	2318                	lbu	a4,0(a4)
     34c:	0ff77713          	andi	a4,a4,255
     350:	eb01                	bnez	a4,360 <main+0x166>
     352:	fec42783          	lw	a5,-20(s0)
     356:	2398                	lbu	a4,0(a5)
     358:	177d                	addi	a4,a4,-1
     35a:	0ff77713          	andi	a4,a4,255
     35e:	a398                	sb	a4,0(a5)
     360:	fec42783          	lw	a5,-20(s0)
     364:	82418593          	addi	a1,gp,-2012 # 20000064 <Rx_buffer>
     368:	2398                	lbu	a4,0(a5)
     36a:	2390                	lbu	a2,0(a5)
     36c:	070d                	addi	a4,a4,3
     36e:	1fc77713          	andi	a4,a4,508
     372:	40e10133          	sub	sp,sp,a4
     376:	850a                	mv	a0,sp
     378:	698020ef          	jal	ra,2a10 <memcpy>
     37c:	fec42783          	lw	a5,-20(s0)
     380:	850a                	mv	a0,sp
     382:	238c                	lbu	a1,0(a5)
     384:	15f9                	addi	a1,a1,-2
     386:	0ff5f593          	andi	a1,a1,255
     38a:	755000ef          	jal	ra,12de <CRC_Check>
     38e:	10050663          	beqz	a0,49a <main+0x2a0>
     392:	3098                	lbu	a4,1(s1)
     394:	4691                	li	a3,4
     396:	0ff77713          	andi	a4,a4,255
     39a:	04d70d63          	beq	a4,a3,3f4 <main+0x1fa>
     39e:	4699                	li	a3,6
     3a0:	1cd70763          	beq	a4,a3,56e <main+0x374>
     3a4:	468d                	li	a3,3
     3a6:	0ed71a63          	bne	a4,a3,49a <main+0x2a0>
     3aa:	20b8                	lbu	a4,2(s1)
     3ac:	4685                	li	a3,1
     3ae:	0ff77713          	andi	a4,a4,255
     3b2:	0ed71463          	bne	a4,a3,49a <main+0x2a0>
     3b6:	30b4                	lbu	a3,3(s1)
     3b8:	0ff6f693          	andi	a3,a3,255
     3bc:	18068d63          	beqz	a3,556 <main+0x35c>
     3c0:	0ce69d63          	bne	a3,a4,49a <main+0x2a0>
     3c4:	fe842783          	lw	a5,-24(s0)
     3c8:	fe0409a3          	sb	zero,-13(s0)
     3cc:	4681                	li	a3,0
     3ce:	4bd8                	lw	a4,20(a5)
     3d0:	4601                	li	a2,0
     3d2:	4b000313          	li	t1,1200
     3d6:	0ff6f593          	andi	a1,a3,255
     3da:	0685                	addi	a3,a3,1
     3dc:	18671663          	bne	a4,t1,568 <main+0x36e>
     3e0:	c219                	beqz	a2,3e6 <main+0x1ec>
     3e2:	feb409a3          	sb	a1,-13(s0)
     3e6:	4685                	li	a3,1
     3e8:	ff340613          	addi	a2,s0,-13
     3ec:	458d                	li	a1,3
     3ee:	20000737          	lui	a4,0x20000
     3f2:	aa85                	j	562 <main+0x368>
     3f4:	30d8                	lbu	a4,5(s1)
     3f6:	fc242223          	sw	sp,-60(s0)
     3fa:	4581                	li	a1,0
     3fc:	0706                	slli	a4,a4,0x1
     3fe:	0711                	addi	a4,a4,4
     400:	3fc77713          	andi	a4,a4,1020
     404:	40e10133          	sub	sp,sp,a4
     408:	30d8                	lbu	a4,5(s1)
     40a:	860a                	mv	a2,sp
     40c:	4389                	li	t2,2
     40e:	0706                	slli	a4,a4,0x1
     410:	8058                	sb	a4,0(sp)
     412:	20d8                	lbu	a4,4(s1)
     414:	30d4                	lbu	a3,5(s1)
     416:	408d                	li	ra,3
     418:	0722                	slli	a4,a4,0x8
     41a:	00d767b3          	or	a5,a4,a3
     41e:	20b8                	lbu	a4,2(s1)
     420:	30b4                	lbu	a3,3(s1)
     422:	0722                	slli	a4,a4,0x8
     424:	8f55                	or	a4,a4,a3
     426:	fce42023          	sw	a4,-64(s0)
     42a:	92c1d703          	lhu	a4,-1748(gp) # 2000016c <lux>
     42e:	00875693          	srli	a3,a4,0x8
     432:	0ff77713          	andi	a4,a4,255
     436:	fce42a23          	sw	a4,-44(s0)
     43a:	9221d703          	lhu	a4,-1758(gp) # 20000162 <co2>
     43e:	fcd42c23          	sw	a3,-40(s0)
     442:	00875693          	srli	a3,a4,0x8
     446:	0ff77713          	andi	a4,a4,255
     44a:	fce42623          	sw	a4,-52(s0)
     44e:	9241d703          	lhu	a4,-1756(gp) # 20000164 <humi>
     452:	fcd42823          	sw	a3,-48(s0)
     456:	00875693          	srli	a3,a4,0x8
     45a:	0ff77713          	andi	a4,a4,255
     45e:	fce42e23          	sw	a4,-36(s0)
     462:	92e1d503          	lhu	a0,-1746(gp) # 2000016e <temp>
     466:	fed42023          	sw	a3,-32(s0)
     46a:	4701                	li	a4,0
     46c:	00855313          	srli	t1,a0,0x8
     470:	0ff57513          	andi	a0,a0,255
     474:	01059693          	slli	a3,a1,0x10
     478:	82c1                	srli	a3,a3,0x10
     47a:	02f6ed63          	bltu	a3,a5,4b4 <main+0x2ba>
     47e:	30d4                	lbu	a3,5(s1)
     480:	20000737          	lui	a4,0x20000
     484:	00074503          	lbu	a0,0(a4) # 20000000 <_data_vma>
     488:	0686                	slli	a3,a3,0x1
     48a:	0685                	addi	a3,a3,1
     48c:	0ff6f693          	andi	a3,a3,255
     490:	4591                	li	a1,4
     492:	5c9000ef          	jal	ra,125a <RS485_Slave_Respone>
     496:	fc442103          	lw	sp,-60(s0)
     49a:	fc842103          	lw	sp,-56(s0)
     49e:	fe442783          	lw	a5,-28(s0)
     4a2:	00078023          	sb	zero,0(a5)
     4a6:	fec42783          	lw	a5,-20(s0)
     4aa:	00078023          	sb	zero,0(a5)
     4ae:	0f0010ef          	jal	ra,159e <RS485_Receive_Mode>
     4b2:	bbdd                	j	2a8 <main+0xae>
     4b4:	fc042683          	lw	a3,-64(s0)
     4b8:	4285                	li	t0,1
     4ba:	96ae                	add	a3,a3,a1
     4bc:	02568763          	beq	a3,t0,4ea <main+0x2f0>
     4c0:	c699                	beqz	a3,4ce <main+0x2d4>
     4c2:	04768763          	beq	a3,t2,510 <main+0x316>
     4c6:	06168763          	beq	a3,ra,534 <main+0x33a>
     4ca:	0585                	addi	a1,a1,1
     4cc:	b765                	j	474 <main+0x27a>
     4ce:	00170693          	addi	a3,a4,1
     4d2:	06c2                	slli	a3,a3,0x10
     4d4:	0709                	addi	a4,a4,2
     4d6:	82c1                	srli	a3,a3,0x10
     4d8:	0742                	slli	a4,a4,0x10
     4da:	96b2                	add	a3,a3,a2
     4dc:	8341                	srli	a4,a4,0x10
     4de:	00668023          	sb	t1,0(a3)
     4e2:	00e606b3          	add	a3,a2,a4
     4e6:	a288                	sb	a0,0(a3)
     4e8:	b7cd                	j	4ca <main+0x2d0>
     4ea:	00170693          	addi	a3,a4,1
     4ee:	fe042283          	lw	t0,-32(s0)
     4f2:	06c2                	slli	a3,a3,0x10
     4f4:	82c1                	srli	a3,a3,0x10
     4f6:	96b2                	add	a3,a3,a2
     4f8:	0709                	addi	a4,a4,2
     4fa:	00568023          	sb	t0,0(a3)
     4fe:	0742                	slli	a4,a4,0x10
     500:	fdc42283          	lw	t0,-36(s0)
     504:	8341                	srli	a4,a4,0x10
     506:	00e606b3          	add	a3,a2,a4
     50a:	00568023          	sb	t0,0(a3)
     50e:	bf75                	j	4ca <main+0x2d0>
     510:	00170693          	addi	a3,a4,1
     514:	fd842283          	lw	t0,-40(s0)
     518:	06c2                	slli	a3,a3,0x10
     51a:	82c1                	srli	a3,a3,0x10
     51c:	96b2                	add	a3,a3,a2
     51e:	0709                	addi	a4,a4,2
     520:	00568023          	sb	t0,0(a3)
     524:	0742                	slli	a4,a4,0x10
     526:	fd442283          	lw	t0,-44(s0)
     52a:	8341                	srli	a4,a4,0x10
     52c:	00e606b3          	add	a3,a2,a4
     530:	00568023          	sb	t0,0(a3)
     534:	00170693          	addi	a3,a4,1
     538:	fd042283          	lw	t0,-48(s0)
     53c:	06c2                	slli	a3,a3,0x10
     53e:	0709                	addi	a4,a4,2
     540:	82c1                	srli	a3,a3,0x10
     542:	0742                	slli	a4,a4,0x10
     544:	96b2                	add	a3,a3,a2
     546:	8341                	srli	a4,a4,0x10
     548:	00568023          	sb	t0,0(a3)
     54c:	00e606b3          	add	a3,a2,a4
     550:	fcc42283          	lw	t0,-52(s0)
     554:	bf5d                	j	50a <main+0x310>
     556:	20000737          	lui	a4,0x20000
     55a:	4685                	li	a3,1
     55c:	00070613          	mv	a2,a4
     560:	458d                	li	a1,3
     562:	00074503          	lbu	a0,0(a4) # 20000000 <_data_vma>
     566:	a099                	j	5ac <main+0x3b2>
     568:	8305                	srli	a4,a4,0x1
     56a:	862a                	mv	a2,a0
     56c:	b5ad                	j	3d6 <main+0x1dc>
     56e:	20b4                	lbu	a3,2(s1)
     570:	4705                	li	a4,1
     572:	0ff6f693          	andi	a3,a3,255
     576:	f2e692e3          	bne	a3,a4,49a <main+0x2a0>
     57a:	30b8                	lbu	a4,3(s1)
     57c:	0ff77713          	andi	a4,a4,255
     580:	02d70963          	beq	a4,a3,5b2 <main+0x3b8>
     584:	c719                	beqz	a4,592 <main+0x398>
     586:	0ff00693          	li	a3,255
     58a:	f0d718e3          	bne	a4,a3,49a <main+0x2a0>
     58e:	36c1                	jal	14e <Shutdown_Device>
     590:	b729                	j	49a <main+0x2a0>
     592:	30d4                	lbu	a3,5(s1)
     594:	20000737          	lui	a4,0x20000
     598:	ff340613          	addi	a2,s0,-13
     59c:	00d70023          	sb	a3,0(a4) # 20000000 <_data_vma>
     5a0:	30d8                	lbu	a4,5(s1)
     5a2:	30c8                	lbu	a0,5(s1)
     5a4:	4685                	li	a3,1
     5a6:	fee409a3          	sb	a4,-13(s0)
     5aa:	4599                	li	a1,6
     5ac:	4af000ef          	jal	ra,125a <RS485_Slave_Respone>
     5b0:	b5ed                	j	49a <main+0x2a0>
     5b2:	30d8                	lbu	a4,5(s1)
     5b4:	30d4                	lbu	a3,5(s1)
     5b6:	0ff77713          	andi	a4,a4,255
     5ba:	fed409a3          	sb	a3,-13(s0)
     5be:	4b000693          	li	a3,1200
     5c2:	e31d                	bnez	a4,5e8 <main+0x3ee>
     5c4:	fe842783          	lw	a5,-24(s0)
     5c8:	20000537          	lui	a0,0x20000
     5cc:	04050513          	addi	a0,a0,64 # 20000040 <_edata>
     5d0:	cbd4                	sw	a3,20(a5)
     5d2:	77d000ef          	jal	ra,154e <RS485_Change_Baudrate>
     5d6:	3e800513          	li	a0,1000
     5da:	644010ef          	jal	ra,1c1e <Delay_Ms>
     5de:	4685                	li	a3,1
     5e0:	ff340613          	addi	a2,s0,-13
     5e4:	4599                	li	a1,6
     5e6:	b521                	j	3ee <main+0x1f4>
     5e8:	177d                	addi	a4,a4,-1
     5ea:	0686                	slli	a3,a3,0x1
     5ec:	0ff77713          	andi	a4,a4,255
     5f0:	bfc9                	j	5c2 <main+0x3c8>

000005f2 <SystemInit>:
     5f2:	aafff2ef          	jal	t0,a0 <__riscv_save_0>
     5f6:	40021437          	lui	s0,0x40021
     5fa:	401c                	lw	a5,0(s0)
     5fc:	fcff0737          	lui	a4,0xfcff0
     600:	1161                	addi	sp,sp,-8
     602:	0017e793          	ori	a5,a5,1
     606:	c01c                	sw	a5,0(s0)
     608:	405c                	lw	a5,4(s0)
     60a:	4541                	li	a0,16
     60c:	8ff9                	and	a5,a5,a4
     60e:	c05c                	sw	a5,4(s0)
     610:	401c                	lw	a5,0(s0)
     612:	fef70737          	lui	a4,0xfef70
     616:	177d                	addi	a4,a4,-1
     618:	8ff9                	and	a5,a5,a4
     61a:	c01c                	sw	a5,0(s0)
     61c:	401c                	lw	a5,0(s0)
     61e:	fffc0737          	lui	a4,0xfffc0
     622:	177d                	addi	a4,a4,-1
     624:	8ff9                	and	a5,a5,a4
     626:	c01c                	sw	a5,0(s0)
     628:	405c                	lw	a5,4(s0)
     62a:	7741                	lui	a4,0xffff0
     62c:	177d                	addi	a4,a4,-1
     62e:	8ff9                	and	a5,a5,a4
     630:	c05c                	sw	a5,4(s0)
     632:	009f07b7          	lui	a5,0x9f0
     636:	c41c                	sw	a5,8(s0)
     638:	2519                	jal	c3e <RCC_AdjustHSICalibrationValue>
     63a:	4c1c                	lw	a5,24(s0)
     63c:	00020637          	lui	a2,0x20
     640:	0207e793          	ori	a5,a5,32
     644:	cc1c                	sw	a5,24(s0)
     646:	400117b7          	lui	a5,0x40011
     64a:	4007a703          	lw	a4,1024(a5) # 40011400 <__global_pointer$+0x20010bc0>
     64e:	40078693          	addi	a3,a5,1024
     652:	f0f77713          	andi	a4,a4,-241
     656:	40e7a023          	sw	a4,1024(a5)
     65a:	4007a703          	lw	a4,1024(a5)
     65e:	08076713          	ori	a4,a4,128
     662:	40e7a023          	sw	a4,1024(a5)
     666:	4789                	li	a5,2
     668:	ca9c                	sw	a5,16(a3)
     66a:	c002                	sw	zero,0(sp)
     66c:	c202                	sw	zero,4(sp)
     66e:	4c1c                	lw	a5,24(s0)
     670:	40010737          	lui	a4,0x40010
     674:	66a1                	lui	a3,0x8
     676:	0017e793          	ori	a5,a5,1
     67a:	cc1c                	sw	a5,24(s0)
     67c:	435c                	lw	a5,4(a4)
     67e:	8fd5                	or	a5,a5,a3
     680:	c35c                	sw	a5,4(a4)
     682:	401c                	lw	a5,0(s0)
     684:	6741                	lui	a4,0x10
     686:	400216b7          	lui	a3,0x40021
     68a:	8fd9                	or	a5,a5,a4
     68c:	c01c                	sw	a5,0(s0)
     68e:	6709                	lui	a4,0x2
     690:	429c                	lw	a5,0(a3)
     692:	8ff1                	and	a5,a5,a2
     694:	c23e                	sw	a5,4(sp)
     696:	4782                	lw	a5,0(sp)
     698:	0785                	addi	a5,a5,1
     69a:	c03e                	sw	a5,0(sp)
     69c:	4792                	lw	a5,4(sp)
     69e:	e781                	bnez	a5,6a6 <SystemInit+0xb4>
     6a0:	4782                	lw	a5,0(sp)
     6a2:	fee797e3          	bne	a5,a4,690 <SystemInit+0x9e>
     6a6:	400217b7          	lui	a5,0x40021
     6aa:	439c                	lw	a5,0(a5)
     6ac:	00e79713          	slli	a4,a5,0xe
     6b0:	06075863          	bgez	a4,720 <SystemInit+0x12e>
     6b4:	4785                	li	a5,1
     6b6:	c23e                	sw	a5,4(sp)
     6b8:	4712                	lw	a4,4(sp)
     6ba:	4785                	li	a5,1
     6bc:	06f71063          	bne	a4,a5,71c <SystemInit+0x12a>
     6c0:	400227b7          	lui	a5,0x40022
     6c4:	4398                	lw	a4,0(a5)
     6c6:	76c1                	lui	a3,0xffff0
     6c8:	16fd                	addi	a3,a3,-1
     6ca:	9b71                	andi	a4,a4,-4
     6cc:	c398                	sw	a4,0(a5)
     6ce:	4398                	lw	a4,0(a5)
     6d0:	00176713          	ori	a4,a4,1
     6d4:	c398                	sw	a4,0(a5)
     6d6:	400217b7          	lui	a5,0x40021
     6da:	43d8                	lw	a4,4(a5)
     6dc:	c3d8                	sw	a4,4(a5)
     6de:	43d8                	lw	a4,4(a5)
     6e0:	8f75                	and	a4,a4,a3
     6e2:	c3d8                	sw	a4,4(a5)
     6e4:	43d8                	lw	a4,4(a5)
     6e6:	66c1                	lui	a3,0x10
     6e8:	8f55                	or	a4,a4,a3
     6ea:	c3d8                	sw	a4,4(a5)
     6ec:	4398                	lw	a4,0(a5)
     6ee:	010006b7          	lui	a3,0x1000
     6f2:	8f55                	or	a4,a4,a3
     6f4:	c398                	sw	a4,0(a5)
     6f6:	4398                	lw	a4,0(a5)
     6f8:	00671693          	slli	a3,a4,0x6
     6fc:	fe06dde3          	bgez	a3,6f6 <SystemInit+0x104>
     700:	43d8                	lw	a4,4(a5)
     702:	400216b7          	lui	a3,0x40021
     706:	9b71                	andi	a4,a4,-4
     708:	c3d8                	sw	a4,4(a5)
     70a:	43d8                	lw	a4,4(a5)
     70c:	00276713          	ori	a4,a4,2
     710:	c3d8                	sw	a4,4(a5)
     712:	4721                	li	a4,8
     714:	42dc                	lw	a5,4(a3)
     716:	8bb1                	andi	a5,a5,12
     718:	fee79ee3          	bne	a5,a4,714 <SystemInit+0x122>
     71c:	0121                	addi	sp,sp,8
     71e:	b271                	j	aa <__riscv_restore_0>
     720:	c202                	sw	zero,4(sp)
     722:	bf59                	j	6b8 <SystemInit+0xc6>

00000724 <SystemCoreClockUpdate>:
     724:	97dff2ef          	jal	t0,a0 <__riscv_save_0>
     728:	40021737          	lui	a4,0x40021
     72c:	435c                	lw	a5,4(a4)
     72e:	20000437          	lui	s0,0x20000
     732:	4691                	li	a3,4
     734:	8bb1                	andi	a5,a5,12
     736:	01440413          	addi	s0,s0,20 # 20000014 <SystemCoreClock>
     73a:	00d78563          	beq	a5,a3,744 <SystemCoreClockUpdate+0x20>
     73e:	46a1                	li	a3,8
     740:	04d78063          	beq	a5,a3,780 <SystemCoreClockUpdate+0x5c>
     744:	016e37b7          	lui	a5,0x16e3
     748:	60078793          	addi	a5,a5,1536 # 16e3600 <_data_lma+0x16e099c>
     74c:	c01c                	sw	a5,0(s0)
     74e:	400216b7          	lui	a3,0x40021
     752:	42dc                	lw	a5,4(a3)
     754:	4008                	lw	a0,0(s0)
     756:	8391                	srli	a5,a5,0x4
     758:	00f7f713          	andi	a4,a5,15
     75c:	200007b7          	lui	a5,0x20000
     760:	00478793          	addi	a5,a5,4 # 20000004 <AHBPrescTable>
     764:	97ba                	add	a5,a5,a4
     766:	238c                	lbu	a1,0(a5)
     768:	42dc                	lw	a5,4(a3)
     76a:	0ff5f593          	andi	a1,a1,255
     76e:	0807f793          	andi	a5,a5,128
     772:	00b55733          	srl	a4,a0,a1
     776:	e399                	bnez	a5,77c <SystemCoreClockUpdate+0x58>
     778:	3ab1                	jal	d4 <__udivsi3>
     77a:	872a                	mv	a4,a0
     77c:	c018                	sw	a4,0(s0)
     77e:	b235                	j	aa <__riscv_restore_0>
     780:	435c                	lw	a5,4(a4)
     782:	02dc77b7          	lui	a5,0x2dc7
     786:	c0078793          	addi	a5,a5,-1024 # 2dc6c00 <_data_lma+0x2dc3f9c>
     78a:	b7c9                	j	74c <SystemCoreClockUpdate+0x28>

0000078c <ADC1_IRQHandler>:
     78c:	a001                	j	78c <ADC1_IRQHandler>

0000078e <handle_reset>:
     78e:	20000197          	auipc	gp,0x20000
     792:	0b218193          	addi	gp,gp,178 # 20000840 <__global_pointer$>
     796:	fc018113          	addi	sp,gp,-64 # 20000800 <_eusrstack>
     79a:	00002517          	auipc	a0,0x2
     79e:	4ca50513          	addi	a0,a0,1226 # 2c64 <_data_lma>
     7a2:	20000597          	auipc	a1,0x20000
     7a6:	85e58593          	addi	a1,a1,-1954 # 20000000 <_data_vma>
     7aa:	20000617          	auipc	a2,0x20000
     7ae:	89660613          	addi	a2,a2,-1898 # 20000040 <_edata>
     7b2:	00c5fa63          	bgeu	a1,a2,7c6 <handle_reset+0x38>
     7b6:	00052283          	lw	t0,0(a0)
     7ba:	0055a023          	sw	t0,0(a1)
     7be:	0511                	addi	a0,a0,4
     7c0:	0591                	addi	a1,a1,4
     7c2:	fec5eae3          	bltu	a1,a2,7b6 <handle_reset+0x28>
     7c6:	20000517          	auipc	a0,0x20000
     7ca:	87a50513          	addi	a0,a0,-1926 # 20000040 <_edata>
     7ce:	94818593          	addi	a1,gp,-1720 # 20000188 <_ebss>
     7d2:	00b57763          	bgeu	a0,a1,7e0 <handle_reset+0x52>
     7d6:	00052023          	sw	zero,0(a0)
     7da:	0511                	addi	a0,a0,4
     7dc:	feb56de3          	bltu	a0,a1,7d6 <handle_reset+0x48>
     7e0:	000022b7          	lui	t0,0x2
     7e4:	88028293          	addi	t0,t0,-1920 # 1880 <I2C_HAL_master_write+0xb2>
     7e8:	30029073          	csrw	mstatus,t0
     7ec:	428d                	li	t0,3
     7ee:	80429073          	csrw	0x804,t0
     7f2:	00000297          	auipc	t0,0x0
     7f6:	80e28293          	addi	t0,t0,-2034 # 0 <_sinit>
     7fa:	0032e293          	ori	t0,t0,3
     7fe:	30529073          	csrw	mtvec,t0
     802:	df1ff0ef          	jal	ra,5f2 <SystemInit>
     806:	00000297          	auipc	t0,0x0
     80a:	9f428293          	addi	t0,t0,-1548 # 1fa <main>
     80e:	34129073          	csrw	mepc,t0
     812:	30200073          	mret

00000816 <GPIO_Init>:
     816:	459c                	lw	a5,8(a1)
     818:	1161                	addi	sp,sp,-8
     81a:	c222                	sw	s0,4(sp)
     81c:	c026                	sw	s1,0(sp)
     81e:	0107f713          	andi	a4,a5,16
     822:	00f7f313          	andi	t1,a5,15
     826:	c701                	beqz	a4,82e <GPIO_Init+0x18>
     828:	41d8                	lw	a4,4(a1)
     82a:	00e36333          	or	t1,t1,a4
     82e:	2192                	lhu	a2,0(a1)
     830:	0ff67713          	andi	a4,a2,255
     834:	c729                	beqz	a4,87e <GPIO_Init+0x68>
     836:	00052383          	lw	t2,0(a0)
     83a:	4701                	li	a4,0
     83c:	02800413          	li	s0,40
     840:	04800493          	li	s1,72
     844:	4685                	li	a3,1
     846:	00e695b3          	sll	a1,a3,a4
     84a:	00b676b3          	and	a3,a2,a1
     84e:	02d59263          	bne	a1,a3,872 <GPIO_Init+0x5c>
     852:	00271293          	slli	t0,a4,0x2
     856:	46bd                	li	a3,15
     858:	005696b3          	sll	a3,a3,t0
     85c:	fff6c693          	not	a3,a3
     860:	0076f3b3          	and	t2,a3,t2
     864:	005312b3          	sll	t0,t1,t0
     868:	0072e3b3          	or	t2,t0,t2
     86c:	06879763          	bne	a5,s0,8da <GPIO_Init+0xc4>
     870:	c94c                	sw	a1,20(a0)
     872:	0705                	addi	a4,a4,1
     874:	46a1                	li	a3,8
     876:	fcd717e3          	bne	a4,a3,844 <GPIO_Init+0x2e>
     87a:	00752023          	sw	t2,0(a0)
     87e:	0ff00713          	li	a4,255
     882:	04c77863          	bgeu	a4,a2,8d2 <GPIO_Init+0xbc>
     886:	00452383          	lw	t2,4(a0)
     88a:	46a1                	li	a3,8
     88c:	02800413          	li	s0,40
     890:	04800493          	li	s1,72
     894:	4705                	li	a4,1
     896:	00d712b3          	sll	t0,a4,a3
     89a:	00567733          	and	a4,a2,t0
     89e:	02e29463          	bne	t0,a4,8c6 <GPIO_Init+0xb0>
     8a2:	00269713          	slli	a4,a3,0x2
     8a6:	1701                	addi	a4,a4,-32
     8a8:	45bd                	li	a1,15
     8aa:	00e595b3          	sll	a1,a1,a4
     8ae:	fff5c593          	not	a1,a1
     8b2:	0075f3b3          	and	t2,a1,t2
     8b6:	00e31733          	sll	a4,t1,a4
     8ba:	007763b3          	or	t2,a4,t2
     8be:	02879263          	bne	a5,s0,8e2 <GPIO_Init+0xcc>
     8c2:	00552a23          	sw	t0,20(a0)
     8c6:	0685                	addi	a3,a3,1
     8c8:	4741                	li	a4,16
     8ca:	fce695e3          	bne	a3,a4,894 <GPIO_Init+0x7e>
     8ce:	00752223          	sw	t2,4(a0)
     8d2:	4412                	lw	s0,4(sp)
     8d4:	4482                	lw	s1,0(sp)
     8d6:	0121                	addi	sp,sp,8
     8d8:	8082                	ret
     8da:	f8979ce3          	bne	a5,s1,872 <GPIO_Init+0x5c>
     8de:	c90c                	sw	a1,16(a0)
     8e0:	bf49                	j	872 <GPIO_Init+0x5c>
     8e2:	fe9792e3          	bne	a5,s1,8c6 <GPIO_Init+0xb0>
     8e6:	00552823          	sw	t0,16(a0)
     8ea:	bff1                	j	8c6 <GPIO_Init+0xb0>

000008ec <GPIO_WriteBit>:
     8ec:	c219                	beqz	a2,8f2 <GPIO_WriteBit+0x6>
     8ee:	c90c                	sw	a1,16(a0)
     8f0:	8082                	ret
     8f2:	c94c                	sw	a1,20(a0)
     8f4:	8082                	ret

000008f6 <GPIO_PinRemapConfig>:
     8f6:	40010337          	lui	t1,0x40010
     8fa:	00432703          	lw	a4,4(t1) # 40010004 <__global_pointer$+0x2000f7c4>
     8fe:	00351793          	slli	a5,a0,0x3
     902:	0207d063          	bgez	a5,922 <GPIO_PinRemapConfig+0x2c>
     906:	ffc007b7          	lui	a5,0xffc00
     90a:	17f5                	addi	a5,a5,-3
     90c:	8ff9                	and	a5,a5,a4
     90e:	07000737          	lui	a4,0x7000
     912:	8fd9                	or	a5,a5,a4
     914:	cdd9                	beqz	a1,9b2 <GPIO_PinRemapConfig+0xbc>
     916:	f0000737          	lui	a4,0xf0000
     91a:	177d                	addi	a4,a4,-1
     91c:	8d79                	and	a0,a0,a4
     91e:	8fc9                	or	a5,a5,a0
     920:	a849                	j	9b2 <GPIO_PinRemapConfig+0xbc>
     922:	00055d63          	bgez	a0,93c <GPIO_PinRemapConfig+0x46>
     926:	ffe007b7          	lui	a5,0xffe00
     92a:	17ed                	addi	a5,a5,-5
     92c:	8ff9                	and	a5,a5,a4
     92e:	07000737          	lui	a4,0x7000
     932:	8fd9                	or	a5,a5,a4
     934:	cdbd                	beqz	a1,9b2 <GPIO_PinRemapConfig+0xbc>
     936:	0506                	slli	a0,a0,0x1
     938:	8105                	srli	a0,a0,0x1
     93a:	b7d5                	j	91e <GPIO_PinRemapConfig+0x28>
     93c:	003007b7          	lui	a5,0x300
     940:	01051693          	slli	a3,a0,0x10
     944:	00f57633          	and	a2,a0,a5
     948:	82c1                	srli	a3,a3,0x10
     94a:	02f61363          	bne	a2,a5,970 <GPIO_PinRemapConfig+0x7a>
     94e:	f9000637          	lui	a2,0xf9000
     952:	167d                	addi	a2,a2,-1
     954:	00c777b3          	and	a5,a4,a2
     958:	00432703          	lw	a4,4(t1)
     95c:	8e79                	and	a2,a2,a4
     95e:	00c32223          	sw	a2,4(t1)
     962:	c9a1                	beqz	a1,9b2 <GPIO_PinRemapConfig+0xbc>
     964:	8155                	srli	a0,a0,0x15
     966:	00451713          	slli	a4,a0,0x4
     96a:	00e69533          	sll	a0,a3,a4
     96e:	bf45                	j	91e <GPIO_PinRemapConfig+0x28>
     970:	00b51793          	slli	a5,a0,0xb
     974:	0207d463          	bgez	a5,99c <GPIO_PinRemapConfig+0xa6>
     978:	01055793          	srli	a5,a0,0x10
     97c:	00f7f613          	andi	a2,a5,15
     980:	478d                	li	a5,3
     982:	00c797b3          	sll	a5,a5,a2
     986:	fff7c793          	not	a5,a5
     98a:	8ff9                	and	a5,a5,a4
     98c:	07000737          	lui	a4,0x7000
     990:	8fd9                	or	a5,a5,a4
     992:	c185                	beqz	a1,9b2 <GPIO_PinRemapConfig+0xbc>
     994:	01555713          	srli	a4,a0,0x15
     998:	0712                	slli	a4,a4,0x4
     99a:	bfc1                	j	96a <GPIO_PinRemapConfig+0x74>
     99c:	8155                	srli	a0,a0,0x15
     99e:	0512                	slli	a0,a0,0x4
     9a0:	00a69533          	sll	a0,a3,a0
     9a4:	fff54793          	not	a5,a0
     9a8:	8ff9                	and	a5,a5,a4
     9aa:	07000737          	lui	a4,0x7000
     9ae:	8fd9                	or	a5,a5,a4
     9b0:	f5bd                	bnez	a1,91e <GPIO_PinRemapConfig+0x28>
     9b2:	40010737          	lui	a4,0x40010
     9b6:	c35c                	sw	a5,4(a4)
     9b8:	8082                	ret

000009ba <I2C_Init>:
     9ba:	ee6ff2ef          	jal	t0,a0 <__riscv_save_0>
     9be:	1111                	addi	sp,sp,-28
     9c0:	2146                	lhu	s1,4(a0)
     9c2:	842a                	mv	s0,a0
     9c4:	0028                	addi	a0,sp,8
     9c6:	c02e                	sw	a1,0(sp)
     9c8:	2c71                	jal	c64 <RCC_GetClocksFreq>
     9ca:	46c2                	lw	a3,16(sp)
     9cc:	04c2                	slli	s1,s1,0x10
     9ce:	80c1                	srli	s1,s1,0x10
     9d0:	fc04f493          	andi	s1,s1,-64
     9d4:	000f45b7          	lui	a1,0xf4
     9d8:	24058593          	addi	a1,a1,576 # f4240 <_data_lma+0xf15dc>
     9dc:	8536                	mv	a0,a3
     9de:	04c2                	slli	s1,s1,0x10
     9e0:	c236                	sw	a3,4(sp)
     9e2:	80c1                	srli	s1,s1,0x10
     9e4:	ef0ff0ef          	jal	ra,d4 <__udivsi3>
     9e8:	8d45                	or	a0,a0,s1
     9ea:	0542                	slli	a0,a0,0x10
     9ec:	8141                	srli	a0,a0,0x10
     9ee:	a04a                	sh	a0,4(s0)
     9f0:	201e                	lhu	a5,0(s0)
     9f2:	4692                	lw	a3,4(sp)
     9f4:	07c2                	slli	a5,a5,0x10
     9f6:	83c1                	srli	a5,a5,0x10
     9f8:	9bf9                	andi	a5,a5,-2
     9fa:	07c2                	slli	a5,a5,0x10
     9fc:	83c1                	srli	a5,a5,0x10
     9fe:	a01e                	sh	a5,0(s0)
     a00:	4782                	lw	a5,0(sp)
     a02:	4390                	lw	a2,0(a5)
     a04:	67e1                	lui	a5,0x18
     a06:	6a078793          	addi	a5,a5,1696 # 186a0 <_data_lma+0x15a3c>
     a0a:	00161593          	slli	a1,a2,0x1
     a0e:	04c7e663          	bltu	a5,a2,a5a <I2C_Init+0xa0>
     a12:	8536                	mv	a0,a3
     a14:	ec0ff0ef          	jal	ra,d4 <__udivsi3>
     a18:	87aa                	mv	a5,a0
     a1a:	0542                	slli	a0,a0,0x10
     a1c:	8141                	srli	a0,a0,0x10
     a1e:	4691                	li	a3,4
     a20:	00d57363          	bgeu	a0,a3,a26 <I2C_Init+0x6c>
     a24:	4791                	li	a5,4
     a26:	01079513          	slli	a0,a5,0x10
     a2a:	8141                	srli	a0,a0,0x10
     a2c:	ac4a                	sh	a0,28(s0)
     a2e:	201e                	lhu	a5,0(s0)
     a30:	4702                	lw	a4,0(sp)
     a32:	0017e793          	ori	a5,a5,1
     a36:	a01e                	sh	a5,0(s0)
     a38:	201e                	lhu	a5,0(s0)
     a3a:	2356                	lhu	a3,4(a4)
     a3c:	2732                	lhu	a2,10(a4)
     a3e:	07c2                	slli	a5,a5,0x10
     a40:	83c1                	srli	a5,a5,0x10
     a42:	8ed1                	or	a3,a3,a2
     a44:	bf57f793          	andi	a5,a5,-1035
     a48:	8fd5                	or	a5,a5,a3
     a4a:	a01e                	sh	a5,0(s0)
     a4c:	2716                	lhu	a3,8(a4)
     a4e:	275e                	lhu	a5,12(a4)
     a50:	8fd5                	or	a5,a5,a3
     a52:	a41e                	sh	a5,8(s0)
     a54:	0171                	addi	sp,sp,28
     a56:	e54ff06f          	j	aa <__riscv_restore_0>
     a5a:	4782                	lw	a5,0(sp)
     a5c:	23ea                	lhu	a0,6(a5)
     a5e:	67b1                	lui	a5,0xc
     a60:	17fd                	addi	a5,a5,-1
     a62:	02f51063          	bne	a0,a5,a82 <I2C_Init+0xc8>
     a66:	95b2                	add	a1,a1,a2
     a68:	8536                	mv	a0,a3
     a6a:	e6aff0ef          	jal	ra,d4 <__udivsi3>
     a6e:	0542                	slli	a0,a0,0x10
     a70:	8141                	srli	a0,a0,0x10
     a72:	01451793          	slli	a5,a0,0x14
     a76:	e399                	bnez	a5,a7c <I2C_Init+0xc2>
     a78:	00156513          	ori	a0,a0,1
     a7c:	67a1                	lui	a5,0x8
     a7e:	8d5d                	or	a0,a0,a5
     a80:	b775                	j	a2c <I2C_Init+0x72>
     a82:	00c587b3          	add	a5,a1,a2
     a86:	078e                	slli	a5,a5,0x3
     a88:	00c785b3          	add	a1,a5,a2
     a8c:	8536                	mv	a0,a3
     a8e:	e46ff0ef          	jal	ra,d4 <__udivsi3>
     a92:	0542                	slli	a0,a0,0x10
     a94:	8141                	srli	a0,a0,0x10
     a96:	6791                	lui	a5,0x4
     a98:	8d5d                	or	a0,a0,a5
     a9a:	bfe1                	j	a72 <I2C_Init+0xb8>

00000a9c <I2C_Cmd>:
     a9c:	211e                	lhu	a5,0(a0)
     a9e:	c589                	beqz	a1,aa8 <I2C_Cmd+0xc>
     aa0:	0017e793          	ori	a5,a5,1
     aa4:	a11e                	sh	a5,0(a0)
     aa6:	8082                	ret
     aa8:	07c2                	slli	a5,a5,0x10
     aaa:	83c1                	srli	a5,a5,0x10
     aac:	9bf9                	andi	a5,a5,-2
     aae:	07c2                	slli	a5,a5,0x10
     ab0:	83c1                	srli	a5,a5,0x10
     ab2:	bfcd                	j	aa4 <I2C_Cmd+0x8>

00000ab4 <I2C_GenerateSTART>:
     ab4:	211e                	lhu	a5,0(a0)
     ab6:	c589                	beqz	a1,ac0 <I2C_GenerateSTART+0xc>
     ab8:	1007e793          	ori	a5,a5,256
     abc:	a11e                	sh	a5,0(a0)
     abe:	8082                	ret
     ac0:	07c2                	slli	a5,a5,0x10
     ac2:	83c1                	srli	a5,a5,0x10
     ac4:	eff7f793          	andi	a5,a5,-257
     ac8:	07c2                	slli	a5,a5,0x10
     aca:	83c1                	srli	a5,a5,0x10
     acc:	bfc5                	j	abc <I2C_GenerateSTART+0x8>

00000ace <I2C_AcknowledgeConfig>:
     ace:	211e                	lhu	a5,0(a0)
     ad0:	c589                	beqz	a1,ada <I2C_AcknowledgeConfig+0xc>
     ad2:	4007e793          	ori	a5,a5,1024
     ad6:	a11e                	sh	a5,0(a0)
     ad8:	8082                	ret
     ada:	07c2                	slli	a5,a5,0x10
     adc:	83c1                	srli	a5,a5,0x10
     ade:	bff7f793          	andi	a5,a5,-1025
     ae2:	07c2                	slli	a5,a5,0x10
     ae4:	83c1                	srli	a5,a5,0x10
     ae6:	bfc5                	j	ad6 <I2C_AcknowledgeConfig+0x8>

00000ae8 <I2C_SendData>:
     ae8:	a90e                	sh	a1,16(a0)
     aea:	8082                	ret

00000aec <I2C_ReceiveData>:
     aec:	290a                	lhu	a0,16(a0)
     aee:	0ff57513          	andi	a0,a0,255
     af2:	8082                	ret

00000af4 <I2C_Send7bitAddress>:
     af4:	0fe5f793          	andi	a5,a1,254
     af8:	c219                	beqz	a2,afe <I2C_Send7bitAddress+0xa>
     afa:	0015e793          	ori	a5,a1,1
     afe:	07c2                	slli	a5,a5,0x10
     b00:	83c1                	srli	a5,a5,0x10
     b02:	a91e                	sh	a5,16(a0)
     b04:	8082                	ret

00000b06 <I2C_CheckEvent>:
     b06:	295e                	lhu	a5,20(a0)
     b08:	2d0a                	lhu	a0,24(a0)
     b0a:	0542                	slli	a0,a0,0x10
     b0c:	8d5d                	or	a0,a0,a5
     b0e:	8d6d                	and	a0,a0,a1
     b10:	0522                	slli	a0,a0,0x8
     b12:	8121                	srli	a0,a0,0x8
     b14:	8d0d                	sub	a0,a0,a1
     b16:	00153513          	seqz	a0,a0
     b1a:	8082                	ret

00000b1c <I2C_GetFlagStatus>:
     b1c:	1161                	addi	sp,sp,-8
     b1e:	c002                	sw	zero,0(sp)
     b20:	c202                	sw	zero,4(sp)
     b22:	01c5d793          	srli	a5,a1,0x1c
     b26:	c22a                	sw	a0,4(sp)
     b28:	c03e                	sw	a5,0(sp)
     b2a:	4782                	lw	a5,0(sp)
     b2c:	05a2                	slli	a1,a1,0x8
     b2e:	81a1                	srli	a1,a1,0x8
     b30:	cb99                	beqz	a5,b46 <I2C_GetFlagStatus+0x2a>
     b32:	4792                	lw	a5,4(sp)
     b34:	07d1                	addi	a5,a5,20
     b36:	c23e                	sw	a5,4(sp)
     b38:	4792                	lw	a5,4(sp)
     b3a:	4388                	lw	a0,0(a5)
     b3c:	0121                	addi	sp,sp,8
     b3e:	8d6d                	and	a0,a0,a1
     b40:	00a03533          	snez	a0,a0
     b44:	8082                	ret
     b46:	4792                	lw	a5,4(sp)
     b48:	81c1                	srli	a1,a1,0x10
     b4a:	07e1                	addi	a5,a5,24
     b4c:	b7ed                	j	b36 <I2C_GetFlagStatus+0x1a>

00000b4e <NVIC_PriorityGroupConfig>:
     b4e:	92a1aa23          	sw	a0,-1740(gp) # 20000174 <NVIC_Priority_Group>
     b52:	8082                	ret

00000b54 <NVIC_Init>:
     b54:	9341a683          	lw	a3,-1740(gp) # 20000174 <NVIC_Priority_Group>
     b58:	4785                	li	a5,1
     b5a:	2118                	lbu	a4,0(a0)
     b5c:	02f69063          	bne	a3,a5,b7c <NVIC_Init+0x28>
     b60:	311c                	lbu	a5,1(a0)
     b62:	02d79c63          	bne	a5,a3,b9a <NVIC_Init+0x46>
     b66:	213c                	lbu	a5,2(a0)
     b68:	079a                	slli	a5,a5,0x6
     b6a:	f807e793          	ori	a5,a5,-128
     b6e:	e000e6b7          	lui	a3,0xe000e
     b72:	0ff7f793          	andi	a5,a5,255
     b76:	96ba                	add	a3,a3,a4
     b78:	40f68023          	sb	a5,1024(a3) # e000e400 <__global_pointer$+0xc000dbc0>
     b7c:	4685                	li	a3,1
     b7e:	00575793          	srli	a5,a4,0x5
     b82:	00e69733          	sll	a4,a3,a4
     b86:	4154                	lw	a3,4(a0)
     b88:	ce89                	beqz	a3,ba2 <NVIC_Init+0x4e>
     b8a:	04078793          	addi	a5,a5,64 # 4040 <_data_lma+0x13dc>
     b8e:	078a                	slli	a5,a5,0x2
     b90:	e000e6b7          	lui	a3,0xe000e
     b94:	97b6                	add	a5,a5,a3
     b96:	c398                	sw	a4,0(a5)
     b98:	8082                	ret
     b9a:	f3ed                	bnez	a5,b7c <NVIC_Init+0x28>
     b9c:	213c                	lbu	a5,2(a0)
     b9e:	079a                	slli	a5,a5,0x6
     ba0:	b7f9                	j	b6e <NVIC_Init+0x1a>
     ba2:	06078793          	addi	a5,a5,96
     ba6:	b7e5                	j	b8e <NVIC_Init+0x3a>

00000ba8 <PWR_AutoWakeUpCmd>:
     ba8:	40007737          	lui	a4,0x40007
     bac:	471c                	lw	a5,8(a4)
     bae:	c509                	beqz	a0,bb8 <PWR_AutoWakeUpCmd+0x10>
     bb0:	0027e793          	ori	a5,a5,2
     bb4:	c71c                	sw	a5,8(a4)
     bb6:	8082                	ret
     bb8:	9bf5                	andi	a5,a5,-3
     bba:	bfed                	j	bb4 <PWR_AutoWakeUpCmd+0xc>

00000bbc <PWR_EnterSTANDBYMode>:
     bbc:	400077b7          	lui	a5,0x40007
     bc0:	4398                	lw	a4,0(a5)
     bc2:	9b75                	andi	a4,a4,-3
     bc4:	c398                	sw	a4,0(a5)
     bc6:	4398                	lw	a4,0(a5)
     bc8:	00276713          	ori	a4,a4,2
     bcc:	c398                	sw	a4,0(a5)
     bce:	e000f7b7          	lui	a5,0xe000f
     bd2:	d107a703          	lw	a4,-752(a5) # e000ed10 <__global_pointer$+0xc000e4d0>
     bd6:	00476713          	ori	a4,a4,4
     bda:	d0e7a823          	sw	a4,-752(a5)
     bde:	4705                	li	a4,1
     be0:	02e51163          	bne	a0,a4,c02 <PWR_EnterSTANDBYMode+0x46>
     be4:	d107a703          	lw	a4,-752(a5)
     be8:	9b5d                	andi	a4,a4,-9
     bea:	d0e7a823          	sw	a4,-752(a5)
     bee:	10500073          	wfi
     bf2:	e000f737          	lui	a4,0xe000f
     bf6:	d1072783          	lw	a5,-752(a4) # e000ed10 <__global_pointer$+0xc000e4d0>
     bfa:	9bed                	andi	a5,a5,-5
     bfc:	d0f72823          	sw	a5,-752(a4)
     c00:	8082                	ret
     c02:	d107a683          	lw	a3,-752(a5)
     c06:	d107a703          	lw	a4,-752(a5)
     c0a:	0206f693          	andi	a3,a3,32
     c0e:	02876713          	ori	a4,a4,40
     c12:	d0e7a823          	sw	a4,-752(a5)
     c16:	d107a703          	lw	a4,-752(a5)
     c1a:	fdf77713          	andi	a4,a4,-33
     c1e:	8f55                	or	a4,a4,a3
     c20:	d0e7a823          	sw	a4,-752(a5)
     c24:	d107a703          	lw	a4,-752(a5)
     c28:	00876713          	ori	a4,a4,8
     c2c:	d0e7a823          	sw	a4,-752(a5)
     c30:	10500073          	wfi
     c34:	d107a703          	lw	a4,-752(a5)
     c38:	00876713          	ori	a4,a4,8
     c3c:	b77d                	j	bea <PWR_EnterSTANDBYMode+0x2e>

00000c3e <RCC_AdjustHSICalibrationValue>:
     c3e:	40021737          	lui	a4,0x40021
     c42:	431c                	lw	a5,0(a4)
     c44:	050e                	slli	a0,a0,0x3
     c46:	f077f793          	andi	a5,a5,-249
     c4a:	8d5d                	or	a0,a0,a5
     c4c:	c308                	sw	a0,0(a4)
     c4e:	8082                	ret

00000c50 <RCC_LSICmd>:
     c50:	40021737          	lui	a4,0x40021
     c54:	535c                	lw	a5,36(a4)
     c56:	c509                	beqz	a0,c60 <RCC_LSICmd+0x10>
     c58:	0017e793          	ori	a5,a5,1
     c5c:	d35c                	sw	a5,36(a4)
     c5e:	8082                	ret
     c60:	9bf9                	andi	a5,a5,-2
     c62:	bfed                	j	c5c <RCC_LSICmd+0xc>

00000c64 <RCC_GetClocksFreq>:
     c64:	c3cff2ef          	jal	t0,a0 <__riscv_save_0>
     c68:	40021737          	lui	a4,0x40021
     c6c:	435c                	lw	a5,4(a4)
     c6e:	4691                	li	a3,4
     c70:	842a                	mv	s0,a0
     c72:	8bb1                	andi	a5,a5,12
     c74:	00d78563          	beq	a5,a3,c7e <RCC_GetClocksFreq+0x1a>
     c78:	46a1                	li	a3,8
     c7a:	06d78d63          	beq	a5,a3,cf4 <RCC_GetClocksFreq+0x90>
     c7e:	016e37b7          	lui	a5,0x16e3
     c82:	60078793          	addi	a5,a5,1536 # 16e3600 <_data_lma+0x16e099c>
     c86:	c01c                	sw	a5,0(s0)
     c88:	400216b7          	lui	a3,0x40021
     c8c:	42dc                	lw	a5,4(a3)
     c8e:	8391                	srli	a5,a5,0x4
     c90:	00f7f713          	andi	a4,a5,15
     c94:	200007b7          	lui	a5,0x20000
     c98:	02c78793          	addi	a5,a5,44 # 2000002c <APBAHBPrescTable>
     c9c:	97ba                	add	a5,a5,a4
     c9e:	238c                	lbu	a1,0(a5)
     ca0:	42dc                	lw	a5,4(a3)
     ca2:	4018                	lw	a4,0(s0)
     ca4:	0ff5f593          	andi	a1,a1,255
     ca8:	0807f793          	andi	a5,a5,128
     cac:	00b75533          	srl	a0,a4,a1
     cb0:	e781                	bnez	a5,cb8 <RCC_GetClocksFreq+0x54>
     cb2:	853a                	mv	a0,a4
     cb4:	c20ff0ef          	jal	ra,d4 <__udivsi3>
     cb8:	c048                	sw	a0,4(s0)
     cba:	c408                	sw	a0,8(s0)
     cbc:	c448                	sw	a0,12(s0)
     cbe:	400217b7          	lui	a5,0x40021
     cc2:	43dc                	lw	a5,4(a5)
     cc4:	83ad                	srli	a5,a5,0xb
     cc6:	8bfd                	andi	a5,a5,31
     cc8:	0037d713          	srli	a4,a5,0x3
     ccc:	078a                	slli	a5,a5,0x2
     cce:	8bf1                	andi	a5,a5,28
     cd0:	8fd9                	or	a5,a5,a4
     cd2:	0137f693          	andi	a3,a5,19
     cd6:	470d                	li	a4,3
     cd8:	00d77363          	bgeu	a4,a3,cde <RCC_GetClocksFreq+0x7a>
     cdc:	17d1                	addi	a5,a5,-12
     cde:	20000737          	lui	a4,0x20000
     ce2:	01870713          	addi	a4,a4,24 # 20000018 <ADCPrescTable>
     ce6:	97ba                	add	a5,a5,a4
     ce8:	238c                	lbu	a1,0(a5)
     cea:	beaff0ef          	jal	ra,d4 <__udivsi3>
     cee:	c808                	sw	a0,16(s0)
     cf0:	bbaff06f          	j	aa <__riscv_restore_0>
     cf4:	435c                	lw	a5,4(a4)
     cf6:	02dc77b7          	lui	a5,0x2dc7
     cfa:	c0078793          	addi	a5,a5,-1024 # 2dc6c00 <_data_lma+0x2dc3f9c>
     cfe:	b761                	j	c86 <RCC_GetClocksFreq+0x22>

00000d00 <RCC_APB2PeriphClockCmd>:
     d00:	c599                	beqz	a1,d0e <RCC_APB2PeriphClockCmd+0xe>
     d02:	40021737          	lui	a4,0x40021
     d06:	4f1c                	lw	a5,24(a4)
     d08:	8d5d                	or	a0,a0,a5
     d0a:	cf08                	sw	a0,24(a4)
     d0c:	8082                	ret
     d0e:	400217b7          	lui	a5,0x40021
     d12:	4f98                	lw	a4,24(a5)
     d14:	fff54513          	not	a0,a0
     d18:	8d79                	and	a0,a0,a4
     d1a:	cf88                	sw	a0,24(a5)
     d1c:	8082                	ret

00000d1e <RCC_APB1PeriphClockCmd>:
     d1e:	c599                	beqz	a1,d2c <RCC_APB1PeriphClockCmd+0xe>
     d20:	40021737          	lui	a4,0x40021
     d24:	4f5c                	lw	a5,28(a4)
     d26:	8d5d                	or	a0,a0,a5
     d28:	cf48                	sw	a0,28(a4)
     d2a:	8082                	ret
     d2c:	400217b7          	lui	a5,0x40021
     d30:	4fd8                	lw	a4,28(a5)
     d32:	fff54513          	not	a0,a0
     d36:	8d79                	and	a0,a0,a4
     d38:	cfc8                	sw	a0,28(a5)
     d3a:	8082                	ret

00000d3c <RCC_APB2PeriphResetCmd>:
     d3c:	c599                	beqz	a1,d4a <RCC_APB2PeriphResetCmd+0xe>
     d3e:	40021737          	lui	a4,0x40021
     d42:	475c                	lw	a5,12(a4)
     d44:	8d5d                	or	a0,a0,a5
     d46:	c748                	sw	a0,12(a4)
     d48:	8082                	ret
     d4a:	400217b7          	lui	a5,0x40021
     d4e:	47d8                	lw	a4,12(a5)
     d50:	fff54513          	not	a0,a0
     d54:	8d79                	and	a0,a0,a4
     d56:	c7c8                	sw	a0,12(a5)
     d58:	8082                	ret

00000d5a <RCC_GetFlagStatus>:
     d5a:	00555713          	srli	a4,a0,0x5
     d5e:	4785                	li	a5,1
     d60:	00f71963          	bne	a4,a5,d72 <RCC_GetFlagStatus+0x18>
     d64:	400217b7          	lui	a5,0x40021
     d68:	439c                	lw	a5,0(a5)
     d6a:	00a7d533          	srl	a0,a5,a0
     d6e:	8905                	andi	a0,a0,1
     d70:	8082                	ret
     d72:	400217b7          	lui	a5,0x40021
     d76:	53dc                	lw	a5,36(a5)
     d78:	bfcd                	j	d6a <RCC_GetFlagStatus+0x10>

00000d7a <USART_DeInit>:
     d7a:	400147b7          	lui	a5,0x40014
     d7e:	80078793          	addi	a5,a5,-2048 # 40013800 <__global_pointer$+0x20012fc0>
     d82:	00f51c63          	bne	a0,a5,d9a <USART_DeInit+0x20>
     d86:	b1aff2ef          	jal	t0,a0 <__riscv_save_0>
     d8a:	4585                	li	a1,1
     d8c:	6511                	lui	a0,0x4
     d8e:	377d                	jal	d3c <RCC_APB2PeriphResetCmd>
     d90:	4581                	li	a1,0
     d92:	6511                	lui	a0,0x4
     d94:	3765                	jal	d3c <RCC_APB2PeriphResetCmd>
     d96:	b14ff06f          	j	aa <__riscv_restore_0>
     d9a:	8082                	ret

00000d9c <USART_Init>:
     d9c:	b04ff2ef          	jal	t0,a0 <__riscv_save_0>
     da0:	2916                	lhu	a3,16(a0)
     da2:	77f5                	lui	a5,0xffffd
     da4:	17fd                	addi	a5,a5,-1
     da6:	8ff5                	and	a5,a5,a3
     da8:	21f6                	lhu	a3,6(a1)
     daa:	25da                	lhu	a4,12(a1)
     dac:	1121                	addi	sp,sp,-24
     dae:	8fd5                	or	a5,a5,a3
     db0:	a91e                	sh	a5,16(a0)
     db2:	2556                	lhu	a3,12(a0)
     db4:	77fd                	lui	a5,0xfffff
     db6:	9f378793          	addi	a5,a5,-1549 # ffffe9f3 <__global_pointer$+0xdfffe1b3>
     dba:	8ff5                	and	a5,a5,a3
     dbc:	21d6                	lhu	a3,4(a1)
     dbe:	842a                	mv	s0,a0
     dc0:	c02e                	sw	a1,0(sp)
     dc2:	8fd5                	or	a5,a5,a3
     dc4:	2596                	lhu	a3,8(a1)
     dc6:	8fd5                	or	a5,a5,a3
     dc8:	25b6                	lhu	a3,10(a1)
     dca:	8fd5                	or	a5,a5,a3
     dcc:	a55e                	sh	a5,12(a0)
     dce:	295e                	lhu	a5,20(a0)
     dd0:	07c2                	slli	a5,a5,0x10
     dd2:	83c1                	srli	a5,a5,0x10
     dd4:	cff7f793          	andi	a5,a5,-769
     dd8:	8f5d                	or	a4,a4,a5
     dda:	a95a                	sh	a4,20(a0)
     ddc:	0048                	addi	a0,sp,4
     dde:	3559                	jal	c64 <RCC_GetClocksFreq>
     de0:	400147b7          	lui	a5,0x40014
     de4:	80078793          	addi	a5,a5,-2048 # 40013800 <__global_pointer$+0x20012fc0>
     de8:	4582                	lw	a1,0(sp)
     dea:	06f41263          	bne	s0,a5,e4e <USART_Init+0xb2>
     dee:	47c2                	lw	a5,16(sp)
     df0:	245a                	lhu	a4,12(s0)
     df2:	00179513          	slli	a0,a5,0x1
     df6:	953e                	add	a0,a0,a5
     df8:	0742                	slli	a4,a4,0x10
     dfa:	050e                	slli	a0,a0,0x3
     dfc:	8741                	srai	a4,a4,0x10
     dfe:	953e                	add	a0,a0,a5
     e00:	418c                	lw	a1,0(a1)
     e02:	04075863          	bgez	a4,e52 <USART_Init+0xb6>
     e06:	0586                	slli	a1,a1,0x1
     e08:	accff0ef          	jal	ra,d4 <__udivsi3>
     e0c:	06400593          	li	a1,100
     e10:	c02a                	sw	a0,0(sp)
     e12:	ac2ff0ef          	jal	ra,d4 <__udivsi3>
     e16:	4782                	lw	a5,0(sp)
     e18:	00451493          	slli	s1,a0,0x4
     e1c:	06400593          	li	a1,100
     e20:	853e                	mv	a0,a5
     e22:	adeff0ef          	jal	ra,100 <__umodsi3>
     e26:	245e                	lhu	a5,12(s0)
     e28:	07c2                	slli	a5,a5,0x10
     e2a:	87c1                	srai	a5,a5,0x10
     e2c:	0207d563          	bgez	a5,e56 <USART_Init+0xba>
     e30:	050e                	slli	a0,a0,0x3
     e32:	06400593          	li	a1,100
     e36:	03250513          	addi	a0,a0,50 # 4032 <_data_lma+0x13ce>
     e3a:	a9aff0ef          	jal	ra,d4 <__udivsi3>
     e3e:	891d                	andi	a0,a0,7
     e40:	8cc9                	or	s1,s1,a0
     e42:	04c2                	slli	s1,s1,0x10
     e44:	80c1                	srli	s1,s1,0x10
     e46:	a406                	sh	s1,8(s0)
     e48:	0161                	addi	sp,sp,24
     e4a:	a60ff06f          	j	aa <__riscv_restore_0>
     e4e:	47b2                	lw	a5,12(sp)
     e50:	b745                	j	df0 <USART_Init+0x54>
     e52:	058a                	slli	a1,a1,0x2
     e54:	bf55                	j	e08 <USART_Init+0x6c>
     e56:	0512                	slli	a0,a0,0x4
     e58:	06400593          	li	a1,100
     e5c:	03250513          	addi	a0,a0,50
     e60:	a74ff0ef          	jal	ra,d4 <__udivsi3>
     e64:	893d                	andi	a0,a0,15
     e66:	bfe9                	j	e40 <USART_Init+0xa4>

00000e68 <USART_Cmd>:
     e68:	c591                	beqz	a1,e74 <USART_Cmd+0xc>
     e6a:	255e                	lhu	a5,12(a0)
     e6c:	6709                	lui	a4,0x2
     e6e:	8fd9                	or	a5,a5,a4
     e70:	a55e                	sh	a5,12(a0)
     e72:	8082                	ret
     e74:	255a                	lhu	a4,12(a0)
     e76:	77f9                	lui	a5,0xffffe
     e78:	17fd                	addi	a5,a5,-1
     e7a:	8ff9                	and	a5,a5,a4
     e7c:	bfd5                	j	e70 <USART_Cmd+0x8>

00000e7e <USART_ITConfig>:
     e7e:	0ff5f713          	andi	a4,a1,255
     e82:	4785                	li	a5,1
     e84:	8315                	srli	a4,a4,0x5
     e86:	00b795b3          	sll	a1,a5,a1
     e8a:	00f71963          	bne	a4,a5,e9c <USART_ITConfig+0x1e>
     e8e:	00c50793          	addi	a5,a0,12
     e92:	4398                	lw	a4,0(a5)
     e94:	ce01                	beqz	a2,eac <USART_ITConfig+0x2e>
     e96:	8dd9                	or	a1,a1,a4
     e98:	c38c                	sw	a1,0(a5)
     e9a:	8082                	ret
     e9c:	4689                	li	a3,2
     e9e:	01450793          	addi	a5,a0,20
     ea2:	fed718e3          	bne	a4,a3,e92 <USART_ITConfig+0x14>
     ea6:	01050793          	addi	a5,a0,16
     eaa:	b7e5                	j	e92 <USART_ITConfig+0x14>
     eac:	fff5c593          	not	a1,a1
     eb0:	8df9                	and	a1,a1,a4
     eb2:	b7dd                	j	e98 <USART_ITConfig+0x1a>

00000eb4 <USART_SendData>:
     eb4:	1ff5f593          	andi	a1,a1,511
     eb8:	a14e                	sh	a1,4(a0)
     eba:	8082                	ret

00000ebc <USART_ReceiveData>:
     ebc:	214a                	lhu	a0,4(a0)
     ebe:	1ff57513          	andi	a0,a0,511
     ec2:	8082                	ret

00000ec4 <USART_GetFlagStatus>:
     ec4:	210a                	lhu	a0,0(a0)
     ec6:	8d6d                	and	a0,a0,a1
     ec8:	00a03533          	snez	a0,a0
     ecc:	8082                	ret

00000ece <USART_GetITStatus>:
     ece:	0ff5f713          	andi	a4,a1,255
     ed2:	4685                	li	a3,1
     ed4:	8315                	srli	a4,a4,0x5
     ed6:	00b697b3          	sll	a5,a3,a1
     eda:	02d71163          	bne	a4,a3,efc <USART_GetITStatus+0x2e>
     ede:	255a                	lhu	a4,12(a0)
     ee0:	8ff9                	and	a5,a5,a4
     ee2:	211a                	lhu	a4,0(a0)
     ee4:	4501                	li	a0,0
     ee6:	0742                	slli	a4,a4,0x10
     ee8:	8341                	srli	a4,a4,0x10
     eea:	cb81                	beqz	a5,efa <USART_GetITStatus+0x2c>
     eec:	4505                	li	a0,1
     eee:	81a1                	srli	a1,a1,0x8
     ef0:	00b515b3          	sll	a1,a0,a1
     ef4:	8f6d                	and	a4,a4,a1
     ef6:	00e03533          	snez	a0,a4
     efa:	8082                	ret
     efc:	4689                	li	a3,2
     efe:	00d71463          	bne	a4,a3,f06 <USART_GetITStatus+0x38>
     f02:	291a                	lhu	a4,16(a0)
     f04:	bff1                	j	ee0 <USART_GetITStatus+0x12>
     f06:	295a                	lhu	a4,20(a0)
     f08:	bfe1                	j	ee0 <USART_GetITStatus+0x12>

00000f0a <scd4x_generate_crc.constprop.0>:
     f0a:	211c                	lbu	a5,0(a0)
     f0c:	4721                	li	a4,8
     f0e:	fff7c793          	not	a5,a5
     f12:	0ff7f793          	andi	a5,a5,255
     f16:	01879693          	slli	a3,a5,0x18
     f1a:	86e1                	srai	a3,a3,0x18
     f1c:	0786                	slli	a5,a5,0x1
     f1e:	0006d463          	bgez	a3,f26 <scd4x_generate_crc.constprop.0+0x1c>
     f22:	0317c793          	xori	a5,a5,49
     f26:	177d                	addi	a4,a4,-1
     f28:	0ff77713          	andi	a4,a4,255
     f2c:	0ff7f793          	andi	a5,a5,255
     f30:	f37d                	bnez	a4,f16 <scd4x_generate_crc.constprop.0+0xc>
     f32:	3108                	lbu	a0,1(a0)
     f34:	8d3d                	xor	a0,a0,a5
     f36:	47a1                	li	a5,8
     f38:	01851713          	slli	a4,a0,0x18
     f3c:	8761                	srai	a4,a4,0x18
     f3e:	0506                	slli	a0,a0,0x1
     f40:	00075463          	bgez	a4,f48 <scd4x_generate_crc.constprop.0+0x3e>
     f44:	03154513          	xori	a0,a0,49
     f48:	17fd                	addi	a5,a5,-1
     f4a:	0ff7f793          	andi	a5,a5,255
     f4e:	0ff57513          	andi	a0,a0,255
     f52:	f3fd                	bnez	a5,f38 <scd4x_generate_crc.constprop.0+0x2e>
     f54:	8082                	ret

00000f56 <scd4x_init>:
     f56:	94aff2ef          	jal	t0,a0 <__riscv_save_0>
     f5a:	06200513          	li	a0,98
     f5e:	7c2000ef          	jal	ra,1720 <I2C_HAL_ping>
     f62:	948ff06f          	j	aa <__riscv_restore_0>

00000f66 <scd4x_send_command>:
     f66:	00161793          	slli	a5,a2,0x1
     f6a:	97b2                	add	a5,a5,a2
     f6c:	1101                	addi	sp,sp,-32
     f6e:	00278313          	addi	t1,a5,2 # ffffe002 <__global_pointer$+0xdfffd7c2>
     f72:	0795                	addi	a5,a5,5
     f74:	cc22                	sw	s0,24(sp)
     f76:	ce06                	sw	ra,28(sp)
     f78:	ca26                	sw	s1,20(sp)
     f7a:	1000                	addi	s0,sp,32
     f7c:	7fc7f793          	andi	a5,a5,2044
     f80:	40f10133          	sub	sp,sp,a5
     f84:	00851793          	slli	a5,a0,0x8
     f88:	8121                	srli	a0,a0,0x8
     f8a:	8d5d                	or	a0,a0,a5
     f8c:	872e                	mv	a4,a1
     f8e:	8068                	sh	a0,0(sp)
     f90:	858a                	mv	a1,sp
     f92:	ef11                	bnez	a4,fae <scd4x_send_command+0x48>
     f94:	0ff37613          	andi	a2,t1,255
     f98:	06200513          	li	a0,98
     f9c:	033000ef          	jal	ra,17ce <I2C_HAL_master_write>
     fa0:	fe040113          	addi	sp,s0,-32
     fa4:	40f2                	lw	ra,28(sp)
     fa6:	4462                	lw	s0,24(sp)
     fa8:	44d2                	lw	s1,20(sp)
     faa:	6105                	addi	sp,sp,32
     fac:	8082                	ret
     fae:	d27d                	beqz	a2,f94 <scd4x_send_command+0x2e>
     fb0:	00210493          	addi	s1,sp,2
     fb4:	4781                	li	a5,0
     fb6:	00179693          	slli	a3,a5,0x1
     fba:	96ba                	add	a3,a3,a4
     fbc:	2296                	lhu	a3,0(a3)
     fbe:	fec42023          	sw	a2,-32(s0)
     fc2:	feb42223          	sw	a1,-28(s0)
     fc6:	0086d513          	srli	a0,a3,0x8
     fca:	06a2                	slli	a3,a3,0x8
     fcc:	8ec9                	or	a3,a3,a0
     fce:	8526                	mv	a0,s1
     fd0:	fe642423          	sw	t1,-24(s0)
     fd4:	fef42623          	sw	a5,-20(s0)
     fd8:	fee42823          	sw	a4,-16(s0)
     fdc:	a096                	sh	a3,0(s1)
     fde:	3735                	jal	f0a <scd4x_generate_crc.constprop.0>
     fe0:	fec42783          	lw	a5,-20(s0)
     fe4:	fe042603          	lw	a2,-32(s0)
     fe8:	a0a8                	sb	a0,2(s1)
     fea:	0785                	addi	a5,a5,1
     fec:	048d                	addi	s1,s1,3
     fee:	ff042703          	lw	a4,-16(s0)
     ff2:	fe842303          	lw	t1,-24(s0)
     ff6:	fe442583          	lw	a1,-28(s0)
     ffa:	fac7eee3          	bltu	a5,a2,fb6 <scd4x_send_command+0x50>
     ffe:	bf59                	j	f94 <scd4x_send_command+0x2e>

00001000 <scd4x_read_resp>:
    1000:	00159713          	slli	a4,a1,0x1
    1004:	1111                	addi	sp,sp,-28
    1006:	972e                	add	a4,a4,a1
    1008:	ca22                	sw	s0,20(sp)
    100a:	c826                	sw	s1,16(sp)
    100c:	cc06                	sw	ra,24(sp)
    100e:	0860                	addi	s0,sp,28
    1010:	00370793          	addi	a5,a4,3 # 2003 <print+0x117>
    1014:	7fc7f793          	andi	a5,a5,2044
    1018:	fe242823          	sw	sp,-16(s0)
    101c:	40f10133          	sub	sp,sp,a5
    1020:	fea42623          	sw	a0,-20(s0)
    1024:	868a                	mv	a3,sp
    1026:	84ae                	mv	s1,a1
    1028:	0ff77713          	andi	a4,a4,255
    102c:	4601                	li	a2,0
    102e:	4581                	li	a1,0
    1030:	06200513          	li	a0,98
    1034:	0bb000ef          	jal	ra,18ee <I2C_HAL_master_read>
    1038:	878a                	mv	a5,sp
    103a:	4681                	li	a3,0
    103c:	0296f663          	bgeu	a3,s1,1068 <scd4x_read_resp+0x68>
    1040:	853e                	mv	a0,a5
    1042:	fed42223          	sw	a3,-28(s0)
    1046:	fef42423          	sw	a5,-24(s0)
    104a:	35c1                	jal	f0a <scd4x_generate_crc.constprop.0>
    104c:	fe842783          	lw	a5,-24(s0)
    1050:	85aa                	mv	a1,a0
    1052:	fe442683          	lw	a3,-28(s0)
    1056:	23b0                	lbu	a2,2(a5)
    1058:	02a60163          	beq	a2,a0,107a <scd4x_read_resp+0x7a>
    105c:	00003537          	lui	a0,0x3
    1060:	af450513          	addi	a0,a0,-1292 # 2af4 <memcpy+0xe4>
    1064:	1e0010ef          	jal	ra,2244 <printf>
    1068:	ff042103          	lw	sp,-16(s0)
    106c:	fe440113          	addi	sp,s0,-28
    1070:	40e2                	lw	ra,24(sp)
    1072:	4452                	lw	s0,20(sp)
    1074:	44c2                	lw	s1,16(sp)
    1076:	0171                	addi	sp,sp,28
    1078:	8082                	ret
    107a:	fec42703          	lw	a4,-20(s0)
    107e:	00169613          	slli	a2,a3,0x1
    1082:	338c                	lbu	a1,1(a5)
    1084:	963a                	add	a2,a2,a4
    1086:	2398                	lbu	a4,0(a5)
    1088:	0685                	addi	a3,a3,1
    108a:	078d                	addi	a5,a5,3
    108c:	0722                	slli	a4,a4,0x8
    108e:	8f4d                	or	a4,a4,a1
    1090:	a21a                	sh	a4,0(a2)
    1092:	b76d                	j	103c <scd4x_read_resp+0x3c>

00001094 <execute_command>:
    1094:	80cff2ef          	jal	t0,a0 <__riscv_save_0>
    1098:	1171                	addi	sp,sp,-4
    109a:	c02e                	sw	a1,0(sp)
    109c:	85b2                	mv	a1,a2
    109e:	8636                	mv	a2,a3
    10a0:	843a                	mv	s0,a4
    10a2:	84be                	mv	s1,a5
    10a4:	35c9                	jal	f66 <scd4x_send_command>
    10a6:	4302                	lw	t1,0(sp)
    10a8:	00030863          	beqz	t1,10b8 <execute_command+0x24>
    10ac:	47a9                	li	a5,10
    10ae:	0067fd63          	bgeu	a5,t1,10c8 <execute_command+0x34>
    10b2:	851a                	mv	a0,t1
    10b4:	36b000ef          	jal	ra,1c1e <Delay_Ms>
    10b8:	c409                	beqz	s0,10c2 <execute_command+0x2e>
    10ba:	c481                	beqz	s1,10c2 <execute_command+0x2e>
    10bc:	85a6                	mv	a1,s1
    10be:	8522                	mv	a0,s0
    10c0:	3781                	jal	1000 <scd4x_read_resp>
    10c2:	0111                	addi	sp,sp,4
    10c4:	fe7fe06f          	j	aa <__riscv_restore_0>
    10c8:	00531513          	slli	a0,t1,0x5
    10cc:	40650533          	sub	a0,a0,t1
    10d0:	050a                	slli	a0,a0,0x2
    10d2:	951a                	add	a0,a0,t1
    10d4:	050e                	slli	a0,a0,0x3
    10d6:	30f000ef          	jal	ra,1be4 <Delay_Us>
    10da:	bff9                	j	10b8 <execute_command+0x24>

000010dc <scd4x_start_periodic_measurement>:
    10dc:	fc5fe2ef          	jal	t0,a0 <__riscv_save_0>
    10e0:	6509                	lui	a0,0x2
    10e2:	4601                	li	a2,0
    10e4:	4581                	li	a1,0
    10e6:	1b150513          	addi	a0,a0,433 # 21b1 <print+0x2c5>
    10ea:	3db5                	jal	f66 <scd4x_send_command>
    10ec:	3e800513          	li	a0,1000
    10f0:	2f5000ef          	jal	ra,1be4 <Delay_Us>
    10f4:	fb7fe06f          	j	aa <__riscv_restore_0>

000010f8 <scd4x_read_measurement_ticks>:
    10f8:	fa9fe2ef          	jal	t0,a0 <__riscv_save_0>
    10fc:	1151                	addi	sp,sp,-12
    10fe:	c02a                	sw	a0,0(sp)
    1100:	653d                	lui	a0,0xf
    1102:	84ae                	mv	s1,a1
    1104:	8432                	mv	s0,a2
    1106:	478d                	li	a5,3
    1108:	0058                	addi	a4,sp,4
    110a:	4681                	li	a3,0
    110c:	4601                	li	a2,0
    110e:	4585                	li	a1,1
    1110:	c0550513          	addi	a0,a0,-1019 # ec05 <_data_lma+0xbfa1>
    1114:	3741                	jal	1094 <execute_command>
    1116:	4302                	lw	t1,0(sp)
    1118:	00030563          	beqz	t1,1122 <scd4x_read_measurement_ticks+0x2a>
    111c:	823c                	lhu	a5,4(sp)
    111e:	00f31023          	sh	a5,0(t1)
    1122:	c099                	beqz	s1,1128 <scd4x_read_measurement_ticks+0x30>
    1124:	833c                	lhu	a5,6(sp)
    1126:	a09e                	sh	a5,0(s1)
    1128:	c019                	beqz	s0,112e <scd4x_read_measurement_ticks+0x36>
    112a:	843c                	lhu	a5,8(sp)
    112c:	a01e                	sh	a5,0(s0)
    112e:	0131                	addi	sp,sp,12
    1130:	f7bfe06f          	j	aa <__riscv_restore_0>

00001134 <scd4x_read_measurement>:
    1134:	f6dfe2ef          	jal	t0,a0 <__riscv_save_0>
    1138:	1171                	addi	sp,sp,-4
    113a:	84ae                	mv	s1,a1
    113c:	8432                	mv	s0,a2
    113e:	858a                	mv	a1,sp
    1140:	00210613          	addi	a2,sp,2
    1144:	3f55                	jal	10f8 <scd4x_read_measurement_ticks>
    1146:	c49d                	beqz	s1,1174 <scd4x_read_measurement+0x40>
    1148:	8028                	lhu	a0,0(sp)
    114a:	78a010ef          	jal	ra,28d4 <__floatunsisf>
    114e:	000037b7          	lui	a5,0x3
    1152:	ae87a583          	lw	a1,-1304(a5) # 2ae8 <memcpy+0xd8>
    1156:	112010ef          	jal	ra,2268 <__mulsf3>
    115a:	000037b7          	lui	a5,0x3
    115e:	aec7a583          	lw	a1,-1300(a5) # 2aec <memcpy+0xdc>
    1162:	106010ef          	jal	ra,2268 <__mulsf3>
    1166:	000037b7          	lui	a5,0x3
    116a:	af07a583          	lw	a1,-1296(a5) # 2af0 <memcpy+0xe0>
    116e:	38a010ef          	jal	ra,24f8 <__subsf3>
    1172:	c088                	sw	a0,0(s1)
    1174:	c00d                	beqz	s0,1196 <scd4x_read_measurement+0x62>
    1176:	8128                	lhu	a0,2(sp)
    1178:	75c010ef          	jal	ra,28d4 <__floatunsisf>
    117c:	000037b7          	lui	a5,0x3
    1180:	ae47a583          	lw	a1,-1308(a5) # 2ae4 <memcpy+0xd4>
    1184:	0e4010ef          	jal	ra,2268 <__mulsf3>
    1188:	000037b7          	lui	a5,0x3
    118c:	aec7a583          	lw	a1,-1300(a5) # 2aec <memcpy+0xdc>
    1190:	0d8010ef          	jal	ra,2268 <__mulsf3>
    1194:	c008                	sw	a0,0(s0)
    1196:	0111                	addi	sp,sp,4
    1198:	f13fe06f          	j	aa <__riscv_restore_0>

0000119c <scd4x_stop_periodic_measurement>:
    119c:	f05fe2ef          	jal	t0,a0 <__riscv_save_0>
    11a0:	6511                	lui	a0,0x4
    11a2:	4601                	li	a2,0
    11a4:	4581                	li	a1,0
    11a6:	f8650513          	addi	a0,a0,-122 # 3f86 <_data_lma+0x1322>
    11aa:	3b75                	jal	f66 <scd4x_send_command>
    11ac:	1f400513          	li	a0,500
    11b0:	26f000ef          	jal	ra,1c1e <Delay_Ms>
    11b4:	ef7fe06f          	j	aa <__riscv_restore_0>

000011b8 <scd4x_get_data_ready_status>:
    11b8:	ee9fe2ef          	jal	t0,a0 <__riscv_save_0>
    11bc:	1171                	addi	sp,sp,-4
    11be:	842a                	mv	s0,a0
    11c0:	6539                	lui	a0,0xe
    11c2:	00210713          	addi	a4,sp,2
    11c6:	4785                	li	a5,1
    11c8:	4681                	li	a3,0
    11ca:	4601                	li	a2,0
    11cc:	4585                	li	a1,1
    11ce:	4b850513          	addi	a0,a0,1208 # e4b8 <_data_lma+0xb854>
    11d2:	35c9                	jal	1094 <execute_command>
    11d4:	813c                	lhu	a5,2(sp)
    11d6:	7ff7f793          	andi	a5,a5,2047
    11da:	00f037b3          	snez	a5,a5
    11de:	a01c                	sb	a5,0(s0)
    11e0:	0111                	addi	sp,sp,4
    11e2:	ec9fe06f          	j	aa <__riscv_restore_0>

000011e6 <scd4x_reinit>:
    11e6:	ebbfe2ef          	jal	t0,a0 <__riscv_save_0>
    11ea:	650d                	lui	a0,0x3
    11ec:	4601                	li	a2,0
    11ee:	4581                	li	a1,0
    11f0:	64650513          	addi	a0,a0,1606 # 3646 <_data_lma+0x9e2>
    11f4:	3b8d                	jal	f66 <scd4x_send_command>
    11f6:	4551                	li	a0,20
    11f8:	227000ef          	jal	ra,1c1e <Delay_Ms>
    11fc:	eaffe06f          	j	aa <__riscv_restore_0>

00001200 <scd4x_wake_up>:
    1200:	ea1fe2ef          	jal	t0,a0 <__riscv_save_0>
    1204:	650d                	lui	a0,0x3
    1206:	4601                	li	a2,0
    1208:	4581                	li	a1,0
    120a:	6f650513          	addi	a0,a0,1782 # 36f6 <_data_lma+0xa92>
    120e:	3ba1                	jal	f66 <scd4x_send_command>
    1210:	4551                	li	a0,20
    1212:	20d000ef          	jal	ra,1c1e <Delay_Ms>
    1216:	e95fe06f          	j	aa <__riscv_restore_0>

0000121a <Generate_CRC>:
    121a:	67c1                	lui	a5,0x10
    121c:	7369                	lui	t1,0xffffa
    121e:	4681                	li	a3,0
    1220:	17fd                	addi	a5,a5,-1
    1222:	0305                	addi	t1,t1,1
    1224:	0ff6f713          	andi	a4,a3,255
    1228:	00b76763          	bltu	a4,a1,1236 <Generate_CRC+0x1c>
    122c:	0087d713          	srli	a4,a5,0x8
    1230:	b218                	sb	a4,1(a2)
    1232:	a21c                	sb	a5,0(a2)
    1234:	8082                	ret
    1236:	00d50733          	add	a4,a0,a3
    123a:	2318                	lbu	a4,0(a4)
    123c:	8fb9                	xor	a5,a5,a4
    123e:	4721                	li	a4,8
    1240:	0017f293          	andi	t0,a5,1
    1244:	8385                	srli	a5,a5,0x1
    1246:	00028663          	beqz	t0,1252 <Generate_CRC+0x38>
    124a:	0067c7b3          	xor	a5,a5,t1
    124e:	07c2                	slli	a5,a5,0x10
    1250:	83c1                	srli	a5,a5,0x10
    1252:	177d                	addi	a4,a4,-1
    1254:	f775                	bnez	a4,1240 <Generate_CRC+0x26>
    1256:	0685                	addi	a3,a3,1
    1258:	b7f1                	j	1224 <Generate_CRC+0xa>

0000125a <RS485_Slave_Respone>:
    125a:	1131                	addi	sp,sp,-20
    125c:	00768793          	addi	a5,a3,7 # 40021007 <__global_pointer$+0x200207c7>
    1260:	c622                	sw	s0,12(sp)
    1262:	c426                	sw	s1,8(sp)
    1264:	c806                	sw	ra,16(sp)
    1266:	0840                	addi	s0,sp,20
    1268:	1fc7f793          	andi	a5,a5,508
    126c:	40f10133          	sub	sp,sp,a5
    1270:	00368713          	addi	a4,a3,3
    1274:	848a                	mv	s1,sp
    1276:	8048                	sb	a0,0(sp)
    1278:	80cc                	sb	a1,1(sp)
    127a:	4781                	li	a5,0
    127c:	04d7c763          	blt	a5,a3,12ca <RS485_Slave_Respone+0x70>
    1280:	00268593          	addi	a1,a3,2
    1284:	8526                	mv	a0,s1
    1286:	93818613          	addi	a2,gp,-1736 # 20000178 <crc>
    128a:	0ff5f593          	andi	a1,a1,255
    128e:	fee42623          	sw	a4,-20(s0)
    1292:	fed42823          	sw	a3,-16(s0)
    1296:	3751                	jal	121a <Generate_CRC>
    1298:	ff042683          	lw	a3,-16(s0)
    129c:	93818793          	addi	a5,gp,-1736 # 20000178 <crc>
    12a0:	238c                	lbu	a1,0(a5)
    12a2:	fec42703          	lw	a4,-20(s0)
    12a6:	339c                	lbu	a5,1(a5)
    12a8:	00d48633          	add	a2,s1,a3
    12ac:	a22c                	sb	a1,2(a2)
    12ae:	9726                	add	a4,a4,s1
    12b0:	0691                	addi	a3,a3,4
    12b2:	8526                	mv	a0,s1
    12b4:	a31c                	sb	a5,0(a4)
    12b6:	0ff6f593          	andi	a1,a3,255
    12ba:	2621                	jal	15c2 <Send_RS485_Data>
    12bc:	fec40113          	addi	sp,s0,-20
    12c0:	40c2                	lw	ra,16(sp)
    12c2:	4432                	lw	s0,12(sp)
    12c4:	44a2                	lw	s1,8(sp)
    12c6:	0151                	addi	sp,sp,20
    12c8:	8082                	ret
    12ca:	00f60533          	add	a0,a2,a5
    12ce:	2108                	lbu	a0,0(a0)
    12d0:	00f485b3          	add	a1,s1,a5
    12d4:	0785                	addi	a5,a5,1
    12d6:	07e2                	slli	a5,a5,0x18
    12d8:	a1a8                	sb	a0,2(a1)
    12da:	87e1                	srai	a5,a5,0x18
    12dc:	b745                	j	127c <RS485_Slave_Respone+0x22>

000012de <CRC_Check>:
    12de:	dc3fe2ef          	jal	t0,a0 <__riscv_save_0>
    12e2:	1171                	addi	sp,sp,-4
    12e4:	860a                	mv	a2,sp
    12e6:	842a                	mv	s0,a0
    12e8:	84ae                	mv	s1,a1
    12ea:	3f05                	jal	121a <Generate_CRC>
    12ec:	009405b3          	add	a1,s0,s1
    12f0:	8018                	lbu	a4,0(sp)
    12f2:	219c                	lbu	a5,0(a1)
    12f4:	4505                	li	a0,1
    12f6:	00f70763          	beq	a4,a5,1304 <CRC_Check+0x26>
    12fa:	3188                	lbu	a0,1(a1)
    12fc:	809c                	lbu	a5,1(sp)
    12fe:	8d1d                	sub	a0,a0,a5
    1300:	00153513          	seqz	a0,a0
    1304:	0111                	addi	sp,sp,4
    1306:	da5fe06f          	j	aa <__riscv_restore_0>

0000130a <RS485_Init>:
    130a:	d97fe2ef          	jal	t0,a0 <__riscv_save_0>
    130e:	4104                	lw	s1,0(a0)
    1310:	fd810113          	addi	sp,sp,-40
    1314:	92a1ae23          	sw	a0,-1732(gp) # 2000017c <conf>
    1318:	c602                	sw	zero,12(sp)
    131a:	c802                	sw	zero,16(sp)
    131c:	ca02                	sw	zero,20(sp)
    131e:	cc02                	sw	zero,24(sp)
    1320:	ce02                	sw	zero,28(sp)
    1322:	d002                	sw	zero,32(sp)
    1324:	d202                	sw	zero,36(sp)
    1326:	c202                	sw	zero,4(sp)
    1328:	c402                	sw	zero,8(sp)
    132a:	4789                	li	a5,2
    132c:	93c18413          	addi	s0,gp,-1732 # 2000017c <conf>
    1330:	1af48063          	beq	s1,a5,14d0 <RS485_Init+0x1c6>
    1334:	1097ee63          	bltu	a5,s1,1450 <RS485_Init+0x146>
    1338:	4785                	li	a5,1
    133a:	14f48e63          	beq	s1,a5,1496 <RS485_Init+0x18c>
    133e:	400144b7          	lui	s1,0x40014
    1342:	80048513          	addi	a0,s1,-2048 # 40013800 <__global_pointer$+0x20012fc0>
    1346:	a35ff0ef          	jal	ra,d7a <USART_DeInit>
    134a:	401c                	lw	a5,0(s0)
    134c:	082c                	addi	a1,sp,24
    134e:	80048513          	addi	a0,s1,-2048
    1352:	4bdc                	lw	a5,20(a5)
    1354:	ce02                	sw	zero,28(sp)
    1356:	02011223          	sh	zero,36(sp)
    135a:	cc3e                	sw	a5,24(sp)
    135c:	000c07b7          	lui	a5,0xc0
    1360:	d03e                	sw	a5,32(sp)
    1362:	a3bff0ef          	jal	ra,d9c <USART_Init>
    1366:	4605                	li	a2,1
    1368:	52500593          	li	a1,1317
    136c:	80048513          	addi	a0,s1,-2048
    1370:	3639                	jal	e7e <USART_ITConfig>
    1372:	4785                	li	a5,1
    1374:	02000713          	li	a4,32
    1378:	835c                	sb	a5,6(sp)
    137a:	0048                	addi	a0,sp,4
    137c:	4785                	li	a5,1
    137e:	8278                	sh	a4,4(sp)
    1380:	c03a                	sw	a4,0(sp)
    1382:	c43e                	sw	a5,8(sp)
    1384:	fd0ff0ef          	jal	ra,b54 <NVIC_Init>
    1388:	4605                	li	a2,1
    138a:	42400593          	li	a1,1060
    138e:	80048513          	addi	a0,s1,-2048
    1392:	34f5                	jal	e7e <USART_ITConfig>
    1394:	4702                	lw	a4,0(sp)
    1396:	4785                	li	a5,1
    1398:	0048                	addi	a0,sp,4
    139a:	8278                	sh	a4,4(sp)
    139c:	4709                	li	a4,2
    139e:	8358                	sb	a4,6(sp)
    13a0:	c43e                	sw	a5,8(sp)
    13a2:	fb2ff0ef          	jal	ra,b54 <NVIC_Init>
    13a6:	4585                	li	a1,1
    13a8:	80048513          	addi	a0,s1,-2048
    13ac:	3c75                	jal	e68 <USART_Cmd>
    13ae:	4018                	lw	a4,0(s0)
    13b0:	400117b7          	lui	a5,0x40011
    13b4:	80078793          	addi	a5,a5,-2048 # 40010800 <__global_pointer$+0x2000ffc0>
    13b8:	4354                	lw	a3,4(a4)
    13ba:	00f68563          	beq	a3,a5,13c4 <RS485_Init+0xba>
    13be:	4758                	lw	a4,12(a4)
    13c0:	00f71663          	bne	a4,a5,13cc <RS485_Init+0xc2>
    13c4:	4585                	li	a1,1
    13c6:	4511                	li	a0,4
    13c8:	939ff0ef          	jal	ra,d00 <RCC_APB2PeriphClockCmd>
    13cc:	4018                	lw	a4,0(s0)
    13ce:	400117b7          	lui	a5,0x40011
    13d2:	4354                	lw	a3,4(a4)
    13d4:	00f68563          	beq	a3,a5,13de <RS485_Init+0xd4>
    13d8:	4758                	lw	a4,12(a4)
    13da:	00f71663          	bne	a4,a5,13e6 <RS485_Init+0xdc>
    13de:	4585                	li	a1,1
    13e0:	4541                	li	a0,16
    13e2:	91fff0ef          	jal	ra,d00 <RCC_APB2PeriphClockCmd>
    13e6:	4018                	lw	a4,0(s0)
    13e8:	400117b7          	lui	a5,0x40011
    13ec:	40078793          	addi	a5,a5,1024 # 40011400 <__global_pointer$+0x20010bc0>
    13f0:	4354                	lw	a3,4(a4)
    13f2:	00f68563          	beq	a3,a5,13fc <RS485_Init+0xf2>
    13f6:	4758                	lw	a4,12(a4)
    13f8:	00f71763          	bne	a4,a5,1406 <RS485_Init+0xfc>
    13fc:	4585                	li	a1,1
    13fe:	02000513          	li	a0,32
    1402:	8ffff0ef          	jal	ra,d00 <RCC_APB2PeriphClockCmd>
    1406:	401c                	lw	a5,0(s0)
    1408:	448d                	li	s1,3
    140a:	006c                	addi	a1,sp,12
    140c:	279a                	lhu	a4,8(a5)
    140e:	43c8                	lw	a0,4(a5)
    1410:	c826                	sw	s1,16(sp)
    1412:	8678                	sh	a4,12(sp)
    1414:	4741                	li	a4,16
    1416:	ca3a                	sw	a4,20(sp)
    1418:	bfeff0ef          	jal	ra,816 <GPIO_Init>
    141c:	401c                	lw	a5,0(s0)
    141e:	4741                	li	a4,16
    1420:	006c                	addi	a1,sp,12
    1422:	2b96                	lhu	a3,16(a5)
    1424:	47c8                	lw	a0,12(a5)
    1426:	ca3a                	sw	a4,20(sp)
    1428:	8674                	sh	a3,12(sp)
    142a:	c826                	sw	s1,16(sp)
    142c:	beaff0ef          	jal	ra,816 <GPIO_Init>
    1430:	401c                	lw	a5,0(s0)
    1432:	4601                	li	a2,0
    1434:	278e                	lhu	a1,8(a5)
    1436:	43c8                	lw	a0,4(a5)
    1438:	cb4ff0ef          	jal	ra,8ec <GPIO_WriteBit>
    143c:	401c                	lw	a5,0(s0)
    143e:	4601                	li	a2,0
    1440:	2b8e                	lhu	a1,16(a5)
    1442:	47c8                	lw	a0,12(a5)
    1444:	ca8ff0ef          	jal	ra,8ec <GPIO_WriteBit>
    1448:	02810113          	addi	sp,sp,40
    144c:	c5ffe06f          	j	aa <__riscv_restore_0>
    1450:	470d                	li	a4,3
    1452:	0ce48363          	beq	s1,a4,1518 <RS485_Init+0x20e>
    1456:	4691                	li	a3,4
    1458:	eed493e3          	bne	s1,a3,133e <RS485_Init+0x34>
    145c:	6511                	lui	a0,0x4
    145e:	4585                	li	a1,1
    1460:	0545                	addi	a0,a0,17
    1462:	89fff0ef          	jal	ra,d00 <RCC_APB2PeriphClockCmd>
    1466:	80200537          	lui	a0,0x80200
    146a:	4585                	li	a1,1
    146c:	0511                	addi	a0,a0,4
    146e:	c88ff0ef          	jal	ra,8f6 <GPIO_PinRemapConfig>
    1472:	470d                	li	a4,3
    1474:	4685                	li	a3,1
    1476:	c83a                	sw	a4,16(sp)
    1478:	006c                	addi	a1,sp,12
    147a:	4761                	li	a4,24
    147c:	40011537          	lui	a0,0x40011
    1480:	8674                	sh	a3,12(sp)
    1482:	ca3a                	sw	a4,20(sp)
    1484:	b92ff0ef          	jal	ra,816 <GPIO_Init>
    1488:	4789                	li	a5,2
    148a:	867c                	sh	a5,12(sp)
    148c:	ca26                	sw	s1,20(sp)
    148e:	006c                	addi	a1,sp,12
    1490:	40011537          	lui	a0,0x40011
    1494:	a8bd                	j	1512 <RS485_Init+0x208>
    1496:	6511                	lui	a0,0x4
    1498:	4585                	li	a1,1
    149a:	02050513          	addi	a0,a0,32 # 4020 <_data_lma+0x13bc>
    149e:	863ff0ef          	jal	ra,d00 <RCC_APB2PeriphClockCmd>
    14a2:	02000793          	li	a5,32
    14a6:	867c                	sh	a5,12(sp)
    14a8:	400114b7          	lui	s1,0x40011
    14ac:	478d                	li	a5,3
    14ae:	c83e                	sw	a5,16(sp)
    14b0:	006c                	addi	a1,sp,12
    14b2:	47e1                	li	a5,24
    14b4:	40048513          	addi	a0,s1,1024 # 40011400 <__global_pointer$+0x20010bc0>
    14b8:	ca3e                	sw	a5,20(sp)
    14ba:	b5cff0ef          	jal	ra,816 <GPIO_Init>
    14be:	04000793          	li	a5,64
    14c2:	867c                	sh	a5,12(sp)
    14c4:	4791                	li	a5,4
    14c6:	ca3e                	sw	a5,20(sp)
    14c8:	006c                	addi	a1,sp,12
    14ca:	40048513          	addi	a0,s1,1024
    14ce:	a091                	j	1512 <RS485_Init+0x208>
    14d0:	6511                	lui	a0,0x4
    14d2:	4585                	li	a1,1
    14d4:	02150513          	addi	a0,a0,33 # 4021 <_data_lma+0x13bd>
    14d8:	829ff0ef          	jal	ra,d00 <RCC_APB2PeriphClockCmd>
    14dc:	80000537          	lui	a0,0x80000
    14e0:	4585                	li	a1,1
    14e2:	0511                	addi	a0,a0,4
    14e4:	c12ff0ef          	jal	ra,8f6 <GPIO_PinRemapConfig>
    14e8:	4785                	li	a5,1
    14ea:	867c                	sh	a5,12(sp)
    14ec:	478d                	li	a5,3
    14ee:	c83e                	sw	a5,16(sp)
    14f0:	47e1                	li	a5,24
    14f2:	ca3e                	sw	a5,20(sp)
    14f4:	400117b7          	lui	a5,0x40011
    14f8:	40078513          	addi	a0,a5,1024 # 40011400 <__global_pointer$+0x20010bc0>
    14fc:	006c                	addi	a1,sp,12
    14fe:	b18ff0ef          	jal	ra,816 <GPIO_Init>
    1502:	4711                	li	a4,4
    1504:	400117b7          	lui	a5,0x40011
    1508:	8664                	sh	s1,12(sp)
    150a:	ca3a                	sw	a4,20(sp)
    150c:	006c                	addi	a1,sp,12
    150e:	40078513          	addi	a0,a5,1024 # 40011400 <__global_pointer$+0x20010bc0>
    1512:	b04ff0ef          	jal	ra,816 <GPIO_Init>
    1516:	b525                	j	133e <RS485_Init+0x34>
    1518:	6511                	lui	a0,0x4
    151a:	4585                	li	a1,1
    151c:	02150513          	addi	a0,a0,33 # 4021 <_data_lma+0x13bd>
    1520:	fe0ff0ef          	jal	ra,d00 <RCC_APB2PeriphClockCmd>
    1524:	4585                	li	a1,1
    1526:	80200537          	lui	a0,0x80200
    152a:	bccff0ef          	jal	ra,8f6 <GPIO_PinRemapConfig>
    152e:	04000793          	li	a5,64
    1532:	c826                	sw	s1,16(sp)
    1534:	400114b7          	lui	s1,0x40011
    1538:	867c                	sh	a5,12(sp)
    153a:	006c                	addi	a1,sp,12
    153c:	47e1                	li	a5,24
    153e:	40048513          	addi	a0,s1,1024 # 40011400 <__global_pointer$+0x20010bc0>
    1542:	ca3e                	sw	a5,20(sp)
    1544:	ad2ff0ef          	jal	ra,816 <GPIO_Init>
    1548:	02000793          	li	a5,32
    154c:	bf9d                	j	14c2 <RS485_Init+0x1b8>

0000154e <RS485_Change_Baudrate>:
    154e:	b53fe2ef          	jal	t0,a0 <__riscv_save_0>
    1552:	92a1ae23          	sw	a0,-1732(gp) # 2000017c <conf>
    1556:	495c                	lw	a5,20(a0)
    1558:	1141                	addi	sp,sp,-16
    155a:	40014537          	lui	a0,0x40014
    155e:	c402                	sw	zero,8(sp)
    1560:	c03e                	sw	a5,0(sp)
    1562:	858a                	mv	a1,sp
    1564:	47b1                	li	a5,12
    1566:	80050513          	addi	a0,a0,-2048 # 40013800 <__global_pointer$+0x20012fc0>
    156a:	857c                	sh	a5,10(sp)
    156c:	c202                	sw	zero,4(sp)
    156e:	c602                	sw	zero,12(sp)
    1570:	82dff0ef          	jal	ra,d9c <USART_Init>
    1574:	0141                	addi	sp,sp,16
    1576:	b35fe06f          	j	aa <__riscv_restore_0>

0000157a <RS485_Send_Mode>:
    157a:	b27fe2ef          	jal	t0,a0 <__riscv_save_0>
    157e:	93c18413          	addi	s0,gp,-1732 # 2000017c <conf>
    1582:	401c                	lw	a5,0(s0)
    1584:	4605                	li	a2,1
    1586:	278e                	lhu	a1,8(a5)
    1588:	43c8                	lw	a0,4(a5)
    158a:	b62ff0ef          	jal	ra,8ec <GPIO_WriteBit>
    158e:	401c                	lw	a5,0(s0)
    1590:	4605                	li	a2,1
    1592:	2b8e                	lhu	a1,16(a5)
    1594:	47c8                	lw	a0,12(a5)
    1596:	b56ff0ef          	jal	ra,8ec <GPIO_WriteBit>
    159a:	b11fe06f          	j	aa <__riscv_restore_0>

0000159e <RS485_Receive_Mode>:
    159e:	b03fe2ef          	jal	t0,a0 <__riscv_save_0>
    15a2:	93c18413          	addi	s0,gp,-1732 # 2000017c <conf>
    15a6:	401c                	lw	a5,0(s0)
    15a8:	4601                	li	a2,0
    15aa:	278e                	lhu	a1,8(a5)
    15ac:	43c8                	lw	a0,4(a5)
    15ae:	b3eff0ef          	jal	ra,8ec <GPIO_WriteBit>
    15b2:	401c                	lw	a5,0(s0)
    15b4:	4601                	li	a2,0
    15b6:	2b8e                	lhu	a1,16(a5)
    15b8:	47c8                	lw	a0,12(a5)
    15ba:	b32ff0ef          	jal	ra,8ec <GPIO_WriteBit>
    15be:	aedfe06f          	j	aa <__riscv_restore_0>

000015c2 <Send_RS485_Data>:
    15c2:	adffe2ef          	jal	t0,a0 <__riscv_save_0>
    15c6:	84aa                	mv	s1,a0
    15c8:	842e                	mv	s0,a1
    15ca:	3f45                	jal	157a <RS485_Send_Mode>
    15cc:	e419                	bnez	s0,15da <Send_RS485_Data+0x18>
    15ce:	06400513          	li	a0,100
    15d2:	25b1                	jal	1c1e <Delay_Ms>
    15d4:	37e9                	jal	159e <RS485_Receive_Mode>
    15d6:	ad5fe06f          	j	aa <__riscv_restore_0>
    15da:	4529                	li	a0,10
    15dc:	2589                	jal	1c1e <Delay_Ms>
    15de:	400147b7          	lui	a5,0x40014
    15e2:	80078713          	addi	a4,a5,-2048 # 40013800 <__global_pointer$+0x20012fc0>
    15e6:	853a                	mv	a0,a4
    15e8:	08000593          	li	a1,128
    15ec:	8d9ff0ef          	jal	ra,ec4 <USART_GetFlagStatus>
    15f0:	400147b7          	lui	a5,0x40014
    15f4:	80078713          	addi	a4,a5,-2048 # 40013800 <__global_pointer$+0x20012fc0>
    15f8:	d57d                	beqz	a0,15e6 <Send_RS485_Data+0x24>
    15fa:	208c                	lbu	a1,0(s1)
    15fc:	853a                	mv	a0,a4
    15fe:	147d                	addi	s0,s0,-1
    1600:	8b5ff0ef          	jal	ra,eb4 <USART_SendData>
    1604:	0ff47413          	andi	s0,s0,255
    1608:	0485                	addi	s1,s1,1
    160a:	b7c9                	j	15cc <Send_RS485_Data+0xa>

0000160c <USART1_IRQHandler>:
    160c:	1171                	addi	sp,sp,-4
    160e:	c022                	sw	s0,0(sp)
    1610:	40014437          	lui	s0,0x40014
    1614:	52500593          	li	a1,1317
    1618:	80040513          	addi	a0,s0,-2048 # 40013800 <__global_pointer$+0x20012fc0>
    161c:	8b3ff0ef          	jal	ra,ece <USART_GetITStatus>
    1620:	c91d                	beqz	a0,1656 <USART1_IRQHandler+0x4a>
    1622:	80040513          	addi	a0,s0,-2048
    1626:	897ff0ef          	jal	ra,ebc <USART_ReceiveData>
    162a:	93c1a783          	lw	a5,-1732(gp) # 2000017c <conf>
    162e:	0ff57513          	andi	a0,a0,255
    1632:	4605                	li	a2,1
    1634:	5398                	lw	a4,32(a5)
    1636:	42400593          	li	a1,1060
    163a:	2314                	lbu	a3,0(a4)
    163c:	4fd8                	lw	a4,28(a5)
    163e:	9736                	add	a4,a4,a3
    1640:	a308                	sb	a0,0(a4)
    1642:	5398                	lw	a4,32(a5)
    1644:	80040513          	addi	a0,s0,-2048
    1648:	231c                	lbu	a5,0(a4)
    164a:	0785                	addi	a5,a5,1
    164c:	0ff7f793          	andi	a5,a5,255
    1650:	a31c                	sb	a5,0(a4)
    1652:	82dff0ef          	jal	ra,e7e <USART_ITConfig>
    1656:	40014437          	lui	s0,0x40014
    165a:	42400593          	li	a1,1060
    165e:	80040513          	addi	a0,s0,-2048 # 40013800 <__global_pointer$+0x20012fc0>
    1662:	86dff0ef          	jal	ra,ece <USART_GetITStatus>
    1666:	cd09                	beqz	a0,1680 <USART1_IRQHandler+0x74>
    1668:	4601                	li	a2,0
    166a:	42400593          	li	a1,1060
    166e:	80040513          	addi	a0,s0,-2048
    1672:	80dff0ef          	jal	ra,e7e <USART_ITConfig>
    1676:	93c1a783          	lw	a5,-1732(gp) # 2000017c <conf>
    167a:	4705                	li	a4,1
    167c:	4f9c                	lw	a5,24(a5)
    167e:	a398                	sb	a4,0(a5)
    1680:	4402                	lw	s0,0(sp)
    1682:	0111                	addi	sp,sp,4
    1684:	30200073          	mret

00001688 <I2C_HAL_Init>:
    1688:	a19fe2ef          	jal	t0,a0 <__riscv_save_0>
    168c:	fdc10113          	addi	sp,sp,-36
    1690:	c22a                	sw	a0,4(sp)
    1692:	c02e                	sw	a1,0(sp)
    1694:	4545                	li	a0,17
    1696:	4585                	li	a1,1
    1698:	c402                	sw	zero,8(sp)
    169a:	c602                	sw	zero,12(sp)
    169c:	c802                	sw	zero,16(sp)
    169e:	ca02                	sw	zero,20(sp)
    16a0:	cc02                	sw	zero,24(sp)
    16a2:	ce02                	sw	zero,28(sp)
    16a4:	d002                	sw	zero,32(sp)
    16a6:	e5aff0ef          	jal	ra,d00 <RCC_APB2PeriphClockCmd>
    16aa:	4585                	li	a1,1
    16ac:	00200537          	lui	a0,0x200
    16b0:	e6eff0ef          	jal	ra,d1e <RCC_APB1PeriphClockCmd>
    16b4:	4691                	li	a3,4
    16b6:	44f1                	li	s1,28
    16b8:	440d                	li	s0,3
    16ba:	002c                	addi	a1,sp,8
    16bc:	40011537          	lui	a0,0x40011
    16c0:	8474                	sh	a3,8(sp)
    16c2:	c826                	sw	s1,16(sp)
    16c4:	c622                	sw	s0,12(sp)
    16c6:	950ff0ef          	jal	ra,816 <GPIO_Init>
    16ca:	4689                	li	a3,2
    16cc:	002c                	addi	a1,sp,8
    16ce:	40011537          	lui	a0,0x40011
    16d2:	8474                	sh	a3,8(sp)
    16d4:	c826                	sw	s1,16(sp)
    16d6:	c622                	sw	s0,12(sp)
    16d8:	93eff0ef          	jal	ra,816 <GPIO_Init>
    16dc:	4782                	lw	a5,0(sp)
    16de:	4712                	lw	a4,4(sp)
    16e0:	40005437          	lui	s0,0x40005
    16e4:	86fc                	sh	a5,28(sp)
    16e6:	40000793          	li	a5,1024
    16ea:	ca3a                	sw	a4,20(sp)
    16ec:	87fc                	sh	a5,30(sp)
    16ee:	bfff0737          	lui	a4,0xbfff0
    16f2:	6791                	lui	a5,0x4
    16f4:	084c                	addi	a1,sp,20
    16f6:	40040513          	addi	a0,s0,1024 # 40005400 <__global_pointer$+0x20004bc0>
    16fa:	cc3a                	sw	a4,24(sp)
    16fc:	02f11023          	sh	a5,32(sp)
    1700:	abaff0ef          	jal	ra,9ba <I2C_Init>
    1704:	40040513          	addi	a0,s0,1024
    1708:	4585                	li	a1,1
    170a:	b92ff0ef          	jal	ra,a9c <I2C_Cmd>
    170e:	4585                	li	a1,1
    1710:	40040513          	addi	a0,s0,1024
    1714:	bbaff0ef          	jal	ra,ace <I2C_AcknowledgeConfig>
    1718:	02410113          	addi	sp,sp,36
    171c:	98ffe06f          	j	aa <__riscv_restore_0>

00001720 <I2C_HAL_ping>:
    1720:	981fe2ef          	jal	t0,a0 <__riscv_save_0>
    1724:	400057b7          	lui	a5,0x40005
    1728:	84aa                	mv	s1,a0
    172a:	7d100413          	li	s0,2001
    172e:	40078713          	addi	a4,a5,1024 # 40005400 <__global_pointer$+0x20004bc0>
    1732:	000205b7          	lui	a1,0x20
    1736:	853a                	mv	a0,a4
    1738:	be4ff0ef          	jal	ra,b1c <I2C_GetFlagStatus>
    173c:	400057b7          	lui	a5,0x40005
    1740:	c105                	beqz	a0,1760 <I2C_HAL_ping+0x40>
    1742:	147d                	addi	s0,s0,-1
    1744:	40078713          	addi	a4,a5,1024 # 40005400 <__global_pointer$+0x20004bc0>
    1748:	f46d                	bnez	s0,1732 <I2C_HAL_ping+0x12>
    174a:	4505                	li	a0,1
    174c:	95ffe06f          	j	aa <__riscv_restore_0>
    1750:	40045783          	lhu	a5,1024(s0)
    1754:	4501                	li	a0,0
    1756:	2007e793          	ori	a5,a5,512
    175a:	40f41023          	sh	a5,1024(s0)
    175e:	b7fd                	j	174c <I2C_HAL_ping+0x2c>
    1760:	4585                	li	a1,1
    1762:	40078513          	addi	a0,a5,1024
    1766:	00030437          	lui	s0,0x30
    176a:	b4aff0ef          	jal	ra,ab4 <I2C_GenerateSTART>
    176e:	0405                	addi	s0,s0,1
    1770:	400057b7          	lui	a5,0x40005
    1774:	40078513          	addi	a0,a5,1024 # 40005400 <__global_pointer$+0x20004bc0>
    1778:	85a2                	mv	a1,s0
    177a:	b8cff0ef          	jal	ra,b06 <I2C_CheckEvent>
    177e:	400057b7          	lui	a5,0x40005
    1782:	d57d                	beqz	a0,1770 <I2C_HAL_ping+0x50>
    1784:	00149593          	slli	a1,s1,0x1
    1788:	40078513          	addi	a0,a5,1024 # 40005400 <__global_pointer$+0x20004bc0>
    178c:	4601                	li	a2,0
    178e:	0fe5f593          	andi	a1,a1,254
    1792:	b62ff0ef          	jal	ra,af4 <I2C_Send7bitAddress>
    1796:	000707b7          	lui	a5,0x70
    179a:	7d100493          	li	s1,2001
    179e:	08278793          	addi	a5,a5,130 # 70082 <_data_lma+0x6d41e>
    17a2:	40005437          	lui	s0,0x40005
    17a6:	85be                	mv	a1,a5
    17a8:	40040513          	addi	a0,s0,1024 # 40005400 <__global_pointer$+0x20004bc0>
    17ac:	b5aff0ef          	jal	ra,b06 <I2C_CheckEvent>
    17b0:	f145                	bnez	a0,1750 <I2C_HAL_ping+0x30>
    17b2:	000707b7          	lui	a5,0x70
    17b6:	14fd                	addi	s1,s1,-1
    17b8:	08278793          	addi	a5,a5,130 # 70082 <_data_lma+0x6d41e>
    17bc:	f0fd                	bnez	s1,17a2 <I2C_HAL_ping+0x82>
    17be:	40045783          	lhu	a5,1024(s0)
    17c2:	4509                	li	a0,2
    17c4:	2007e793          	ori	a5,a5,512
    17c8:	40f41023          	sh	a5,1024(s0)
    17cc:	b741                	j	174c <I2C_HAL_ping+0x2c>

000017ce <I2C_HAL_master_write>:
    17ce:	8d3fe2ef          	jal	t0,a0 <__riscv_save_0>
    17d2:	1161                	addi	sp,sp,-8
    17d4:	40005737          	lui	a4,0x40005
    17d8:	84aa                	mv	s1,a0
    17da:	842e                	mv	s0,a1
    17dc:	c032                	sw	a2,0(sp)
    17de:	7d100793          	li	a5,2001
    17e2:	40070693          	addi	a3,a4,1024 # 40005400 <__global_pointer$+0x20004bc0>
    17e6:	000205b7          	lui	a1,0x20
    17ea:	8536                	mv	a0,a3
    17ec:	c23e                	sw	a5,4(sp)
    17ee:	b2eff0ef          	jal	ra,b1c <I2C_GetFlagStatus>
    17f2:	40005737          	lui	a4,0x40005
    17f6:	c141                	beqz	a0,1876 <I2C_HAL_master_write+0xa8>
    17f8:	4792                	lw	a5,4(sp)
    17fa:	40070693          	addi	a3,a4,1024 # 40005400 <__global_pointer$+0x20004bc0>
    17fe:	17fd                	addi	a5,a5,-1
    1800:	f3fd                	bnez	a5,17e6 <I2C_HAL_master_write+0x18>
    1802:	4505                	li	a0,1
    1804:	0121                	addi	sp,sp,8
    1806:	8a5fe06f          	j	aa <__riscv_restore_0>
    180a:	100005b7          	lui	a1,0x10000
    180e:	400057b7          	lui	a5,0x40005
    1812:	08058593          	addi	a1,a1,128 # 10000080 <_data_lma+0xfffd41c>
    1816:	40078513          	addi	a0,a5,1024 # 40005400 <__global_pointer$+0x20004bc0>
    181a:	b02ff0ef          	jal	ra,b1c <I2C_GetFlagStatus>
    181e:	cd19                	beqz	a0,183c <I2C_HAL_master_write+0x6e>
    1820:	4529                	li	a0,10
    1822:	2ef5                	jal	1c1e <Delay_Ms>
    1824:	200c                	lbu	a1,0(s0)
    1826:	400057b7          	lui	a5,0x40005
    182a:	00140713          	addi	a4,s0,1
    182e:	40078513          	addi	a0,a5,1024 # 40005400 <__global_pointer$+0x20004bc0>
    1832:	c23a                	sw	a4,4(sp)
    1834:	ab4ff0ef          	jal	ra,ae8 <I2C_SendData>
    1838:	4712                	lw	a4,4(sp)
    183a:	843a                	mv	s0,a4
    183c:	0485                	addi	s1,s1,1
    183e:	4782                	lw	a5,0(sp)
    1840:	fcf4c5e3          	blt	s1,a5,180a <I2C_HAL_master_write+0x3c>
    1844:	000704b7          	lui	s1,0x70
    1848:	08448493          	addi	s1,s1,132 # 70084 <_data_lma+0x6d420>
    184c:	40005437          	lui	s0,0x40005
    1850:	85a6                	mv	a1,s1
    1852:	40040513          	addi	a0,s0,1024 # 40005400 <__global_pointer$+0x20004bc0>
    1856:	ab0ff0ef          	jal	ra,b06 <I2C_CheckEvent>
    185a:	d96d                	beqz	a0,184c <I2C_HAL_master_write+0x7e>
    185c:	40045783          	lhu	a5,1024(s0)
    1860:	06400513          	li	a0,100
    1864:	2007e793          	ori	a5,a5,512
    1868:	40f41023          	sh	a5,1024(s0)
    186c:	2e4d                	jal	1c1e <Delay_Ms>
    186e:	4501                	li	a0,0
    1870:	bf51                	j	1804 <I2C_HAL_master_write+0x36>
    1872:	4481                	li	s1,0
    1874:	b7e9                	j	183e <I2C_HAL_master_write+0x70>
    1876:	4585                	li	a1,1
    1878:	40070513          	addi	a0,a4,1024
    187c:	a38ff0ef          	jal	ra,ab4 <I2C_GenerateSTART>
    1880:	000307b7          	lui	a5,0x30
    1884:	0785                	addi	a5,a5,1
    1886:	40005737          	lui	a4,0x40005
    188a:	85be                	mv	a1,a5
    188c:	40070513          	addi	a0,a4,1024 # 40005400 <__global_pointer$+0x20004bc0>
    1890:	a76ff0ef          	jal	ra,b06 <I2C_CheckEvent>
    1894:	000307b7          	lui	a5,0x30
    1898:	40005737          	lui	a4,0x40005
    189c:	0785                	addi	a5,a5,1
    189e:	d565                	beqz	a0,1886 <I2C_HAL_master_write+0xb8>
    18a0:	00149593          	slli	a1,s1,0x1
    18a4:	40070513          	addi	a0,a4,1024 # 40005400 <__global_pointer$+0x20004bc0>
    18a8:	4601                	li	a2,0
    18aa:	0fe5f593          	andi	a1,a1,254
    18ae:	a46ff0ef          	jal	ra,af4 <I2C_Send7bitAddress>
    18b2:	00070737          	lui	a4,0x70
    18b6:	7d100793          	li	a5,2001
    18ba:	08270713          	addi	a4,a4,130 # 70082 <_data_lma+0x6d41e>
    18be:	400054b7          	lui	s1,0x40005
    18c2:	85ba                	mv	a1,a4
    18c4:	40048513          	addi	a0,s1,1024 # 40005400 <__global_pointer$+0x20004bc0>
    18c8:	c23e                	sw	a5,4(sp)
    18ca:	a3cff0ef          	jal	ra,b06 <I2C_CheckEvent>
    18ce:	f155                	bnez	a0,1872 <I2C_HAL_master_write+0xa4>
    18d0:	4792                	lw	a5,4(sp)
    18d2:	00070737          	lui	a4,0x70
    18d6:	08270713          	addi	a4,a4,130 # 70082 <_data_lma+0x6d41e>
    18da:	17fd                	addi	a5,a5,-1
    18dc:	f3ed                	bnez	a5,18be <I2C_HAL_master_write+0xf0>
    18de:	4004d783          	lhu	a5,1024(s1)
    18e2:	4509                	li	a0,2
    18e4:	2007e793          	ori	a5,a5,512
    18e8:	40f49023          	sh	a5,1024(s1)
    18ec:	bf21                	j	1804 <I2C_HAL_master_write+0x36>

000018ee <I2C_HAL_master_read>:
    18ee:	fb2fe2ef          	jal	t0,a0 <__riscv_save_0>
    18f2:	1111                	addi	sp,sp,-28
    18f4:	400054b7          	lui	s1,0x40005
    18f8:	c62a                	sw	a0,12(sp)
    18fa:	c02e                	sw	a1,0(sp)
    18fc:	c832                	sw	a2,16(sp)
    18fe:	c436                	sw	a3,8(sp)
    1900:	c23a                	sw	a4,4(sp)
    1902:	7d100413          	li	s0,2001
    1906:	40048793          	addi	a5,s1,1024 # 40005400 <__global_pointer$+0x20004bc0>
    190a:	000205b7          	lui	a1,0x20
    190e:	853e                	mv	a0,a5
    1910:	a0cff0ef          	jal	ra,b1c <I2C_GetFlagStatus>
    1914:	14050663          	beqz	a0,1a60 <I2C_HAL_master_read+0x172>
    1918:	400057b7          	lui	a5,0x40005
    191c:	147d                	addi	s0,s0,-1
    191e:	40078793          	addi	a5,a5,1024 # 40005400 <__global_pointer$+0x20004bc0>
    1922:	f465                	bnez	s0,190a <I2C_HAL_master_read+0x1c>
    1924:	4505                	li	a0,1
    1926:	0171                	addi	sp,sp,28
    1928:	f82fe06f          	j	aa <__riscv_restore_0>
    192c:	10000437          	lui	s0,0x10000
    1930:	08040793          	addi	a5,s0,128 # 10000080 <_data_lma+0xfffd41c>
    1934:	4481                	li	s1,0
    1936:	ca3e                	sw	a5,20(sp)
    1938:	45d2                	lw	a1,20(sp)
    193a:	40005437          	lui	s0,0x40005
    193e:	40040513          	addi	a0,s0,1024 # 40005400 <__global_pointer$+0x20004bc0>
    1942:	9daff0ef          	jal	ra,b1c <I2C_GetFlagStatus>
    1946:	cd11                	beqz	a0,1962 <I2C_HAL_master_read+0x74>
    1948:	4529                	li	a0,10
    194a:	2cd1                	jal	1c1e <Delay_Ms>
    194c:	4782                	lw	a5,0(sp)
    194e:	40040513          	addi	a0,s0,1024
    1952:	238c                	lbu	a1,0(a5)
    1954:	00178713          	addi	a4,a5,1
    1958:	cc3a                	sw	a4,24(sp)
    195a:	98eff0ef          	jal	ra,ae8 <I2C_SendData>
    195e:	4762                	lw	a4,24(sp)
    1960:	c03a                	sw	a4,0(sp)
    1962:	47c2                	lw	a5,16(sp)
    1964:	0485                	addi	s1,s1,1
    1966:	fcf4c9e3          	blt	s1,a5,1938 <I2C_HAL_master_read+0x4a>
    196a:	00070437          	lui	s0,0x70
    196e:	08440413          	addi	s0,s0,132 # 70084 <_data_lma+0x6d420>
    1972:	40005537          	lui	a0,0x40005
    1976:	85a2                	mv	a1,s0
    1978:	40050513          	addi	a0,a0,1024 # 40005400 <__global_pointer$+0x20004bc0>
    197c:	98aff0ef          	jal	ra,b06 <I2C_CheckEvent>
    1980:	d96d                	beqz	a0,1972 <I2C_HAL_master_read+0x84>
    1982:	40005537          	lui	a0,0x40005
    1986:	40055783          	lhu	a5,1024(a0) # 40005400 <__global_pointer$+0x20004bc0>
    198a:	4585                	li	a1,1
    198c:	40050513          	addi	a0,a0,1024
    1990:	4007e793          	ori	a5,a5,1024
    1994:	a11e                	sh	a5,0(a0)
    1996:	00030437          	lui	s0,0x30
    199a:	91aff0ef          	jal	ra,ab4 <I2C_GenerateSTART>
    199e:	0405                	addi	s0,s0,1
    19a0:	400054b7          	lui	s1,0x40005
    19a4:	85a2                	mv	a1,s0
    19a6:	40048513          	addi	a0,s1,1024 # 40005400 <__global_pointer$+0x20004bc0>
    19aa:	95cff0ef          	jal	ra,b06 <I2C_CheckEvent>
    19ae:	d96d                	beqz	a0,19a0 <I2C_HAL_master_read+0xb2>
    19b0:	47b2                	lw	a5,12(sp)
    19b2:	40048513          	addi	a0,s1,1024
    19b6:	4605                	li	a2,1
    19b8:	00179593          	slli	a1,a5,0x1
    19bc:	0fe5f593          	andi	a1,a1,254
    19c0:	934ff0ef          	jal	ra,af4 <I2C_Send7bitAddress>
    19c4:	000307b7          	lui	a5,0x30
    19c8:	7d100493          	li	s1,2001
    19cc:	0789                	addi	a5,a5,2
    19ce:	40005437          	lui	s0,0x40005
    19d2:	85be                	mv	a1,a5
    19d4:	40040513          	addi	a0,s0,1024 # 40005400 <__global_pointer$+0x20004bc0>
    19d8:	92eff0ef          	jal	ra,b06 <I2C_CheckEvent>
    19dc:	ed35                	bnez	a0,1a58 <I2C_HAL_master_read+0x16a>
    19de:	000307b7          	lui	a5,0x30
    19e2:	14fd                	addi	s1,s1,-1
    19e4:	0789                	addi	a5,a5,2
    19e6:	f4e5                	bnez	s1,19ce <I2C_HAL_master_read+0xe0>
    19e8:	a0cd                	j	1aca <I2C_HAL_master_read+0x1dc>
    19ea:	4712                	lw	a4,4(sp)
    19ec:	4785                	li	a5,1
    19ee:	00f71e63          	bne	a4,a5,1a0a <I2C_HAL_master_read+0x11c>
    19f2:	40005737          	lui	a4,0x40005
    19f6:	40075783          	lhu	a5,1024(a4) # 40005400 <__global_pointer$+0x20004bc0>
    19fa:	07c2                	slli	a5,a5,0x10
    19fc:	83c1                	srli	a5,a5,0x10
    19fe:	bff7f793          	andi	a5,a5,-1025
    1a02:	07c2                	slli	a5,a5,0x10
    1a04:	83c1                	srli	a5,a5,0x10
    1a06:	40f71023          	sh	a5,1024(a4)
    1a0a:	100005b7          	lui	a1,0x10000
    1a0e:	40005437          	lui	s0,0x40005
    1a12:	04058593          	addi	a1,a1,64 # 10000040 <_data_lma+0xfffd3dc>
    1a16:	40040513          	addi	a0,s0,1024 # 40005400 <__global_pointer$+0x20004bc0>
    1a1a:	902ff0ef          	jal	ra,b1c <I2C_GetFlagStatus>
    1a1e:	cd11                	beqz	a0,1a3a <I2C_HAL_master_read+0x14c>
    1a20:	40040513          	addi	a0,s0,1024
    1a24:	8c8ff0ef          	jal	ra,aec <I2C_ReceiveData>
    1a28:	47a2                	lw	a5,8(sp)
    1a2a:	a388                	sb	a0,0(a5)
    1a2c:	0785                	addi	a5,a5,1
    1a2e:	c43e                	sw	a5,8(sp)
    1a30:	4792                	lw	a5,4(sp)
    1a32:	17fd                	addi	a5,a5,-1
    1a34:	0ff7f793          	andi	a5,a5,255
    1a38:	c23e                	sw	a5,4(sp)
    1a3a:	4792                	lw	a5,4(sp)
    1a3c:	f7dd                	bnez	a5,19ea <I2C_HAL_master_read+0xfc>
    1a3e:	40005737          	lui	a4,0x40005
    1a42:	40075783          	lhu	a5,1024(a4) # 40005400 <__global_pointer$+0x20004bc0>
    1a46:	06400513          	li	a0,100
    1a4a:	2007e793          	ori	a5,a5,512
    1a4e:	40f71023          	sh	a5,1024(a4)
    1a52:	22f1                	jal	1c1e <Delay_Ms>
    1a54:	4501                	li	a0,0
    1a56:	bdc1                	j	1926 <I2C_HAL_master_read+0x38>
    1a58:	3e800513          	li	a0,1000
    1a5c:	2261                	jal	1be4 <Delay_Us>
    1a5e:	bff1                	j	1a3a <I2C_HAL_master_read+0x14c>
    1a60:	4782                	lw	a5,0(sp)
    1a62:	f20780e3          	beqz	a5,1982 <I2C_HAL_master_read+0x94>
    1a66:	47c2                	lw	a5,16(sp)
    1a68:	f0078de3          	beqz	a5,1982 <I2C_HAL_master_read+0x94>
    1a6c:	4585                	li	a1,1
    1a6e:	40048513          	addi	a0,s1,1024
    1a72:	00030437          	lui	s0,0x30
    1a76:	83eff0ef          	jal	ra,ab4 <I2C_GenerateSTART>
    1a7a:	0405                	addi	s0,s0,1
    1a7c:	400054b7          	lui	s1,0x40005
    1a80:	85a2                	mv	a1,s0
    1a82:	40048513          	addi	a0,s1,1024 # 40005400 <__global_pointer$+0x20004bc0>
    1a86:	880ff0ef          	jal	ra,b06 <I2C_CheckEvent>
    1a8a:	d96d                	beqz	a0,1a7c <I2C_HAL_master_read+0x18e>
    1a8c:	47b2                	lw	a5,12(sp)
    1a8e:	40048513          	addi	a0,s1,1024
    1a92:	4601                	li	a2,0
    1a94:	00179593          	slli	a1,a5,0x1
    1a98:	0fe5f593          	andi	a1,a1,254
    1a9c:	858ff0ef          	jal	ra,af4 <I2C_Send7bitAddress>
    1aa0:	000707b7          	lui	a5,0x70
    1aa4:	7d100493          	li	s1,2001
    1aa8:	08278793          	addi	a5,a5,130 # 70082 <_data_lma+0x6d41e>
    1aac:	40005437          	lui	s0,0x40005
    1ab0:	85be                	mv	a1,a5
    1ab2:	40040513          	addi	a0,s0,1024 # 40005400 <__global_pointer$+0x20004bc0>
    1ab6:	850ff0ef          	jal	ra,b06 <I2C_CheckEvent>
    1aba:	e60519e3          	bnez	a0,192c <I2C_HAL_master_read+0x3e>
    1abe:	000707b7          	lui	a5,0x70
    1ac2:	14fd                	addi	s1,s1,-1
    1ac4:	08278793          	addi	a5,a5,130 # 70082 <_data_lma+0x6d41e>
    1ac8:	f0f5                	bnez	s1,1aac <I2C_HAL_master_read+0x1be>
    1aca:	40045783          	lhu	a5,1024(s0)
    1ace:	4509                	li	a0,2
    1ad0:	2007e793          	ori	a5,a5,512
    1ad4:	40f41023          	sh	a5,1024(s0)
    1ad8:	b5b9                	j	1926 <I2C_HAL_master_read+0x38>

00001ada <bh1750_init>:
    1ada:	02300793          	li	a5,35
    1ade:	c119                	beqz	a0,1ae4 <bh1750_init+0xa>
    1ae0:	05c00793          	li	a5,92
    1ae4:	94f18023          	sb	a5,-1728(gp) # 20000180 <bh1750_addr>
    1ae8:	8082                	ret

00001aea <bh1750_power_down>:
    1aea:	db6fe2ef          	jal	t0,a0 <__riscv_save_0>
    1aee:	9401c503          	lbu	a0,-1728(gp) # 20000180 <bh1750_addr>
    1af2:	940180a3          	sb	zero,-1727(gp) # 20000181 <state>
    1af6:	4605                	li	a2,1
    1af8:	94118593          	addi	a1,gp,-1727 # 20000181 <state>
    1afc:	39c9                	jal	17ce <I2C_HAL_master_write>
    1afe:	dacfe06f          	j	aa <__riscv_restore_0>

00001b02 <bh1750_setup>:
    1b02:	d9efe2ef          	jal	t0,a0 <__riscv_save_0>
    1b06:	4705                	li	a4,1
    1b08:	1171                	addi	sp,sp,-4
    1b0a:	02000793          	li	a5,32
    1b0e:	00e51363          	bne	a0,a4,1b14 <bh1750_setup+0x12>
    1b12:	47c1                	li	a5,16
    1b14:	c185                	beqz	a1,1b34 <bh1750_setup+0x32>
    1b16:	4705                	li	a4,1
    1b18:	02e59163          	bne	a1,a4,1b3a <bh1750_setup+0x38>
    1b1c:	81dc                	sb	a5,3(sp)
    1b1e:	9401c503          	lbu	a0,-1728(gp) # 20000180 <bh1750_addr>
    1b22:	00310593          	addi	a1,sp,3
    1b26:	4605                	li	a2,1
    1b28:	315d                	jal	17ce <I2C_HAL_master_write>
    1b2a:	4529                	li	a0,10
    1b2c:	28cd                	jal	1c1e <Delay_Ms>
    1b2e:	0111                	addi	sp,sp,4
    1b30:	d7afe06f          	j	aa <__riscv_restore_0>
    1b34:	0037e793          	ori	a5,a5,3
    1b38:	b7d5                	j	1b1c <bh1750_setup+0x1a>
    1b3a:	0017e793          	ori	a5,a5,1
    1b3e:	bff9                	j	1b1c <bh1750_setup+0x1a>

00001b40 <bh1750_set_measurement_time>:
    1b40:	d60fe2ef          	jal	t0,a0 <__riscv_save_0>
    1b44:	94018493          	addi	s1,gp,-1728 # 20000180 <bh1750_addr>
    1b48:	842a                	mv	s0,a0
    1b4a:	00555793          	srli	a5,a0,0x5
    1b4e:	2088                	lbu	a0,0(s1)
    1b50:	1171                	addi	sp,sp,-4
    1b52:	0407e793          	ori	a5,a5,64
    1b56:	00310593          	addi	a1,sp,3
    1b5a:	4605                	li	a2,1
    1b5c:	81dc                	sb	a5,3(sp)
    1b5e:	c71ff0ef          	jal	ra,17ce <I2C_HAL_master_write>
    1b62:	2088                	lbu	a0,0(s1)
    1b64:	887d                	andi	s0,s0,31
    1b66:	06046413          	ori	s0,s0,96
    1b6a:	00310593          	addi	a1,sp,3
    1b6e:	4605                	li	a2,1
    1b70:	81c0                	sb	s0,3(sp)
    1b72:	c5dff0ef          	jal	ra,17ce <I2C_HAL_master_write>
    1b76:	0111                	addi	sp,sp,4
    1b78:	d32fe06f          	j	aa <__riscv_restore_0>

00001b7c <bh1750_read>:
    1b7c:	d24fe2ef          	jal	t0,a0 <__riscv_save_0>
    1b80:	842a                	mv	s0,a0
    1b82:	9401c503          	lbu	a0,-1728(gp) # 20000180 <bh1750_addr>
    1b86:	1171                	addi	sp,sp,-4
    1b88:	868a                	mv	a3,sp
    1b8a:	4709                	li	a4,2
    1b8c:	4601                	li	a2,0
    1b8e:	4581                	li	a1,0
    1b90:	3bb9                	jal	18ee <I2C_HAL_master_read>
    1b92:	8008                	lbu	a0,0(sp)
    1b94:	809c                	lbu	a5,1(sp)
    1b96:	45b1                	li	a1,12
    1b98:	0522                	slli	a0,a0,0x8
    1b9a:	8d5d                	or	a0,a0,a5
    1b9c:	00251793          	slli	a5,a0,0x2
    1ba0:	953e                	add	a0,a0,a5
    1ba2:	0506                	slli	a0,a0,0x1
    1ba4:	d28fe0ef          	jal	ra,cc <__divsi3>
    1ba8:	a00a                	sh	a0,0(s0)
    1baa:	0111                	addi	sp,sp,4
    1bac:	cfefe06f          	j	aa <__riscv_restore_0>

00001bb0 <Delay_Init>:
    1bb0:	cf0fe2ef          	jal	t0,a0 <__riscv_save_0>
    1bb4:	200007b7          	lui	a5,0x20000
    1bb8:	0147a503          	lw	a0,20(a5) # 20000014 <SystemCoreClock>
    1bbc:	007a15b7          	lui	a1,0x7a1
    1bc0:	20058593          	addi	a1,a1,512 # 7a1200 <_data_lma+0x79e59c>
    1bc4:	d10fe0ef          	jal	ra,d4 <__udivsi3>
    1bc8:	0ff57513          	andi	a0,a0,255
    1bcc:	94a18223          	sb	a0,-1724(gp) # 20000184 <p_us>
    1bd0:	00551793          	slli	a5,a0,0x5
    1bd4:	8f89                	sub	a5,a5,a0
    1bd6:	078a                	slli	a5,a5,0x2
    1bd8:	953e                	add	a0,a0,a5
    1bda:	050e                	slli	a0,a0,0x3
    1bdc:	94a19123          	sh	a0,-1726(gp) # 20000182 <p_ms>
    1be0:	ccafe06f          	j	aa <__riscv_restore_0>

00001be4 <Delay_Us>:
    1be4:	cbcfe2ef          	jal	t0,a0 <__riscv_save_0>
    1be8:	e000f437          	lui	s0,0xe000f
    1bec:	405c                	lw	a5,4(s0)
    1bee:	85aa                	mv	a1,a0
    1bf0:	9bf9                	andi	a5,a5,-2
    1bf2:	c05c                	sw	a5,4(s0)
    1bf4:	9441c503          	lbu	a0,-1724(gp) # 20000184 <p_us>
    1bf8:	cbcfe0ef          	jal	ra,b4 <__mulsi3>
    1bfc:	c808                	sw	a0,16(s0)
    1bfe:	00042423          	sw	zero,8(s0) # e000f008 <__global_pointer$+0xc000e7c8>
    1c02:	401c                	lw	a5,0(s0)
    1c04:	0017e793          	ori	a5,a5,1
    1c08:	c01c                	sw	a5,0(s0)
    1c0a:	e000f7b7          	lui	a5,0xe000f
    1c0e:	43d8                	lw	a4,4(a5)
    1c10:	8b05                	andi	a4,a4,1
    1c12:	df75                	beqz	a4,1c0e <Delay_Us+0x2a>
    1c14:	4398                	lw	a4,0(a5)
    1c16:	9b79                	andi	a4,a4,-2
    1c18:	c398                	sw	a4,0(a5)
    1c1a:	c90fe06f          	j	aa <__riscv_restore_0>

00001c1e <Delay_Ms>:
    1c1e:	c82fe2ef          	jal	t0,a0 <__riscv_save_0>
    1c22:	e000f437          	lui	s0,0xe000f
    1c26:	405c                	lw	a5,4(s0)
    1c28:	85aa                	mv	a1,a0
    1c2a:	9bf9                	andi	a5,a5,-2
    1c2c:	c05c                	sw	a5,4(s0)
    1c2e:	9421d503          	lhu	a0,-1726(gp) # 20000182 <p_ms>
    1c32:	c82fe0ef          	jal	ra,b4 <__mulsi3>
    1c36:	c808                	sw	a0,16(s0)
    1c38:	00042423          	sw	zero,8(s0) # e000f008 <__global_pointer$+0xc000e7c8>
    1c3c:	401c                	lw	a5,0(s0)
    1c3e:	0017e793          	ori	a5,a5,1
    1c42:	c01c                	sw	a5,0(s0)
    1c44:	e000f7b7          	lui	a5,0xe000f
    1c48:	43d8                	lw	a4,4(a5)
    1c4a:	8b05                	andi	a4,a4,1
    1c4c:	df75                	beqz	a4,1c48 <Delay_Ms+0x2a>
    1c4e:	4398                	lw	a4,0(a5)
    1c50:	9b79                	andi	a4,a4,-2
    1c52:	c398                	sw	a4,0(a5)
    1c54:	c56fe06f          	j	aa <__riscv_restore_0>

00001c58 <_write>:
    1c58:	c48fe2ef          	jal	t0,a0 <__riscv_save_0>
    1c5c:	1171                	addi	sp,sp,-4
    1c5e:	84ae                	mv	s1,a1
    1c60:	4401                	li	s0,0
    1c62:	02c45f63          	bge	s0,a2,1ca0 <_write+0x48>
    1c66:	400147b7          	lui	a5,0x40014
    1c6a:	80078713          	addi	a4,a5,-2048 # 40013800 <__global_pointer$+0x20012fc0>
    1c6e:	853a                	mv	a0,a4
    1c70:	04000593          	li	a1,64
    1c74:	c032                	sw	a2,0(sp)
    1c76:	a4eff0ef          	jal	ra,ec4 <USART_GetFlagStatus>
    1c7a:	400147b7          	lui	a5,0x40014
    1c7e:	80078713          	addi	a4,a5,-2048 # 40013800 <__global_pointer$+0x20012fc0>
    1c82:	4602                	lw	a2,0(sp)
    1c84:	d56d                	beqz	a0,1c6e <_write+0x16>
    1c86:	00848733          	add	a4,s1,s0
    1c8a:	00070583          	lb	a1,0(a4)
    1c8e:	80078513          	addi	a0,a5,-2048
    1c92:	0405                	addi	s0,s0,1
    1c94:	05c2                	slli	a1,a1,0x10
    1c96:	81c1                	srli	a1,a1,0x10
    1c98:	a1cff0ef          	jal	ra,eb4 <USART_SendData>
    1c9c:	4602                	lw	a2,0(sp)
    1c9e:	b7d1                	j	1c62 <_write+0xa>
    1ca0:	8532                	mv	a0,a2
    1ca2:	0111                	addi	sp,sp,4
    1ca4:	c06fe06f          	j	aa <__riscv_restore_0>

00001ca8 <printchar>:
    1ca8:	1141                	addi	sp,sp,-16
    1caa:	c606                	sw	ra,12(sp)
    1cac:	c02e                	sw	a1,0(sp)
    1cae:	cd0d                	beqz	a0,1ce8 <printchar+0x40>
    1cb0:	4118                	lw	a4,0(a0)
    1cb2:	87aa                	mv	a5,a0
    1cb4:	c305                	beqz	a4,1cd4 <printchar+0x2c>
    1cb6:	4158                	lw	a4,4(a0)
    1cb8:	557d                	li	a0,-1
    1cba:	cb11                	beqz	a4,1cce <printchar+0x26>
    1cbc:	4685                	li	a3,1
    1cbe:	00d71b63          	bne	a4,a3,1cd4 <printchar+0x2c>
    1cc2:	4798                	lw	a4,8(a5)
    1cc4:	00070023          	sb	zero,0(a4)
    1cc8:	0007a223          	sw	zero,4(a5)
    1ccc:	4505                	li	a0,1
    1cce:	40b2                	lw	ra,12(sp)
    1cd0:	0141                	addi	sp,sp,16
    1cd2:	8082                	ret
    1cd4:	4798                	lw	a4,8(a5)
    1cd6:	4682                	lw	a3,0(sp)
    1cd8:	a314                	sb	a3,0(a4)
    1cda:	4798                	lw	a4,8(a5)
    1cdc:	0705                	addi	a4,a4,1
    1cde:	c798                	sw	a4,8(a5)
    1ce0:	43d8                	lw	a4,4(a5)
    1ce2:	177d                	addi	a4,a4,-1
    1ce4:	c3d8                	sw	a4,4(a5)
    1ce6:	b7dd                	j	1ccc <printchar+0x24>
    1ce8:	4605                	li	a2,1
    1cea:	858a                	mv	a1,sp
    1cec:	37b5                	jal	1c58 <_write>
    1cee:	bff9                	j	1ccc <printchar+0x24>

00001cf0 <prints>:
    1cf0:	1101                	addi	sp,sp,-32
    1cf2:	cc22                	sw	s0,24(sp)
    1cf4:	c22e                	sw	a1,4(sp)
    1cf6:	ce06                	sw	ra,28(sp)
    1cf8:	ca26                	sw	s1,20(sp)
    1cfa:	842a                	mv	s0,a0
    1cfc:	4781                	li	a5,0
    1cfe:	02000593          	li	a1,32
    1d02:	02064563          	bltz	a2,1d2c <prints+0x3c>
    1d06:	4592                	lw	a1,4(sp)
    1d08:	95be                	add	a1,a1,a5
    1d0a:	00058583          	lb	a1,0(a1)
    1d0e:	e58d                	bnez	a1,1d38 <prints+0x48>
    1d10:	02c7d863          	bge	a5,a2,1d40 <prints+0x50>
    1d14:	02e7d463          	bge	a5,a4,1d3c <prints+0x4c>
    1d18:	8e19                	sub	a2,a2,a4
    1d1a:	02000513          	li	a0,32
    1d1e:	0026f593          	andi	a1,a3,2
    1d22:	c02a                	sw	a0,0(sp)
    1d24:	c589                	beqz	a1,1d2e <prints+0x3e>
    1d26:	e701                	bnez	a4,1d2e <prints+0x3e>
    1d28:	03000593          	li	a1,48
    1d2c:	c02e                	sw	a1,0(sp)
    1d2e:	8a85                	andi	a3,a3,1
    1d30:	4481                	li	s1,0
    1d32:	ea95                	bnez	a3,1d66 <prints+0x76>
    1d34:	84b2                	mv	s1,a2
    1d36:	a00d                	j	1d58 <prints+0x68>
    1d38:	0785                	addi	a5,a5,1
    1d3a:	b7f1                	j	1d06 <prints+0x16>
    1d3c:	8e1d                	sub	a2,a2,a5
    1d3e:	bff1                	j	1d1a <prints+0x2a>
    1d40:	4601                	li	a2,0
    1d42:	bfe1                	j	1d1a <prints+0x2a>
    1d44:	4582                	lw	a1,0(sp)
    1d46:	8522                	mv	a0,s0
    1d48:	c83a                	sw	a4,16(sp)
    1d4a:	c632                	sw	a2,12(sp)
    1d4c:	c43e                	sw	a5,8(sp)
    1d4e:	3fa9                	jal	1ca8 <printchar>
    1d50:	47a2                	lw	a5,8(sp)
    1d52:	4632                	lw	a2,12(sp)
    1d54:	4742                	lw	a4,16(sp)
    1d56:	14fd                	addi	s1,s1,-1
    1d58:	fe9046e3          	bgtz	s1,1d44 <prints+0x54>
    1d5c:	84b2                	mv	s1,a2
    1d5e:	00065363          	bgez	a2,1d64 <prints+0x74>
    1d62:	4481                	li	s1,0
    1d64:	8e05                	sub	a2,a2,s1
    1d66:	02e7c763          	blt	a5,a4,1d94 <prints+0xa4>
    1d6a:	87a6                	mv	a5,s1
    1d6c:	4692                	lw	a3,4(sp)
    1d6e:	40978733          	sub	a4,a5,s1
    1d72:	9736                	add	a4,a4,a3
    1d74:	00070583          	lb	a1,0(a4)
    1d78:	ed95                	bnez	a1,1db4 <prints+0xc4>
    1d7a:	84b2                	mv	s1,a2
    1d7c:	04904463          	bgtz	s1,1dc4 <prints+0xd4>
    1d80:	00065363          	bgez	a2,1d86 <prints+0x96>
    1d84:	4601                	li	a2,0
    1d86:	40f2                	lw	ra,28(sp)
    1d88:	4462                	lw	s0,24(sp)
    1d8a:	44d2                	lw	s1,20(sp)
    1d8c:	00f60533          	add	a0,a2,a5
    1d90:	6105                	addi	sp,sp,32
    1d92:	8082                	ret
    1d94:	8f1d                	sub	a4,a4,a5
    1d96:	87ba                	mv	a5,a4
    1d98:	03000593          	li	a1,48
    1d9c:	8522                	mv	a0,s0
    1d9e:	c832                	sw	a2,16(sp)
    1da0:	c63e                	sw	a5,12(sp)
    1da2:	c43a                	sw	a4,8(sp)
    1da4:	3711                	jal	1ca8 <printchar>
    1da6:	47b2                	lw	a5,12(sp)
    1da8:	4722                	lw	a4,8(sp)
    1daa:	4642                	lw	a2,16(sp)
    1dac:	17fd                	addi	a5,a5,-1
    1dae:	f7ed                	bnez	a5,1d98 <prints+0xa8>
    1db0:	94ba                	add	s1,s1,a4
    1db2:	bf65                	j	1d6a <prints+0x7a>
    1db4:	8522                	mv	a0,s0
    1db6:	c632                	sw	a2,12(sp)
    1db8:	c43e                	sw	a5,8(sp)
    1dba:	35fd                	jal	1ca8 <printchar>
    1dbc:	47a2                	lw	a5,8(sp)
    1dbe:	4632                	lw	a2,12(sp)
    1dc0:	0785                	addi	a5,a5,1
    1dc2:	b76d                	j	1d6c <prints+0x7c>
    1dc4:	4582                	lw	a1,0(sp)
    1dc6:	8522                	mv	a0,s0
    1dc8:	c432                	sw	a2,8(sp)
    1dca:	c23e                	sw	a5,4(sp)
    1dcc:	3df1                	jal	1ca8 <printchar>
    1dce:	14fd                	addi	s1,s1,-1
    1dd0:	4622                	lw	a2,8(sp)
    1dd2:	4792                	lw	a5,4(sp)
    1dd4:	b765                	j	1d7c <prints+0x8c>

00001dd6 <printInt>:
    1dd6:	7139                	addi	sp,sp,-64
    1dd8:	de06                	sw	ra,60(sp)
    1dda:	dc22                	sw	s0,56(sp)
    1ddc:	da26                	sw	s1,52(sp)
    1dde:	c23e                	sw	a5,4(sp)
    1de0:	8332                	mv	t1,a2
    1de2:	863a                	mv	a2,a4
    1de4:	ed89                	bnez	a1,1dfe <printInt+0x28>
    1de6:	4692                	lw	a3,4(sp)
    1de8:	03000793          	li	a5,48
    1dec:	4701                	li	a4,0
    1dee:	086c                	addi	a1,sp,28
    1df0:	86fc                	sh	a5,28(sp)
    1df2:	3dfd                	jal	1cf0 <prints>
    1df4:	50f2                	lw	ra,60(sp)
    1df6:	5462                	lw	s0,56(sp)
    1df8:	54d2                	lw	s1,52(sp)
    1dfa:	6121                	addi	sp,sp,64
    1dfc:	8082                	ret
    1dfe:	84aa                	mv	s1,a0
    1e00:	8436                	mv	s0,a3
    1e02:	87ae                	mv	a5,a1
    1e04:	ca91                	beqz	a3,1e18 <printInt+0x42>
    1e06:	4729                	li	a4,10
    1e08:	4401                	li	s0,0
    1e0a:	00e31763          	bne	t1,a4,1e18 <printInt+0x42>
    1e0e:	0005d563          	bgez	a1,1e18 <printInt+0x42>
    1e12:	40b007b3          	neg	a5,a1
    1e16:	4405                	li	s0,1
    1e18:	4686                	lw	a3,64(sp)
    1e1a:	020109a3          	sb	zero,51(sp)
    1e1e:	03310713          	addi	a4,sp,51
    1e22:	fc668693          	addi	a3,a3,-58
    1e26:	c436                	sw	a3,8(sp)
    1e28:	859a                	mv	a1,t1
    1e2a:	853e                	mv	a0,a5
    1e2c:	ca32                	sw	a2,20(sp)
    1e2e:	c83a                	sw	a4,16(sp)
    1e30:	c61a                	sw	t1,12(sp)
    1e32:	c03e                	sw	a5,0(sp)
    1e34:	accfe0ef          	jal	ra,100 <__umodsi3>
    1e38:	46a5                	li	a3,9
    1e3a:	4782                	lw	a5,0(sp)
    1e3c:	4332                	lw	t1,12(sp)
    1e3e:	4742                	lw	a4,16(sp)
    1e40:	4652                	lw	a2,20(sp)
    1e42:	00a6d463          	bge	a3,a0,1e4a <printInt+0x74>
    1e46:	46a2                	lw	a3,8(sp)
    1e48:	9536                	add	a0,a0,a3
    1e4a:	03050513          	addi	a0,a0,48
    1e4e:	fff70693          	addi	a3,a4,-1
    1e52:	fea70fa3          	sb	a0,-1(a4)
    1e56:	859a                	mv	a1,t1
    1e58:	853e                	mv	a0,a5
    1e5a:	cc32                	sw	a2,24(sp)
    1e5c:	ca3a                	sw	a4,20(sp)
    1e5e:	c81a                	sw	t1,16(sp)
    1e60:	c63e                	sw	a5,12(sp)
    1e62:	c036                	sw	a3,0(sp)
    1e64:	a70fe0ef          	jal	ra,d4 <__udivsi3>
    1e68:	47b2                	lw	a5,12(sp)
    1e6a:	4342                	lw	t1,16(sp)
    1e6c:	4752                	lw	a4,20(sp)
    1e6e:	4662                	lw	a2,24(sp)
    1e70:	0467f963          	bgeu	a5,t1,1ec2 <printInt+0xec>
    1e74:	cc01                	beqz	s0,1e8c <printInt+0xb6>
    1e76:	ca29                	beqz	a2,1ec8 <printInt+0xf2>
    1e78:	4792                	lw	a5,4(sp)
    1e7a:	8b89                	andi	a5,a5,2
    1e7c:	c7b1                	beqz	a5,1ec8 <printInt+0xf2>
    1e7e:	02d00593          	li	a1,45
    1e82:	8526                	mv	a0,s1
    1e84:	c432                	sw	a2,8(sp)
    1e86:	350d                	jal	1ca8 <printchar>
    1e88:	4622                	lw	a2,8(sp)
    1e8a:	167d                	addi	a2,a2,-1
    1e8c:	4792                	lw	a5,4(sp)
    1e8e:	8b91                	andi	a5,a5,4
    1e90:	c395                	beqz	a5,1eb4 <printInt+0xde>
    1e92:	4706                	lw	a4,64(sp)
    1e94:	06100793          	li	a5,97
    1e98:	c432                	sw	a2,8(sp)
    1e9a:	03000593          	li	a1,48
    1e9e:	8526                	mv	a0,s1
    1ea0:	02f71e63          	bne	a4,a5,1edc <printInt+0x106>
    1ea4:	3511                	jal	1ca8 <printchar>
    1ea6:	07800593          	li	a1,120
    1eaa:	8526                	mv	a0,s1
    1eac:	3bf5                	jal	1ca8 <printchar>
    1eae:	4622                	lw	a2,8(sp)
    1eb0:	0409                	addi	s0,s0,2
    1eb2:	1679                	addi	a2,a2,-2
    1eb4:	4716                	lw	a4,68(sp)
    1eb6:	4692                	lw	a3,4(sp)
    1eb8:	4582                	lw	a1,0(sp)
    1eba:	8526                	mv	a0,s1
    1ebc:	3d15                	jal	1cf0 <prints>
    1ebe:	9522                	add	a0,a0,s0
    1ec0:	bf15                	j	1df4 <printInt+0x1e>
    1ec2:	87aa                	mv	a5,a0
    1ec4:	4702                	lw	a4,0(sp)
    1ec6:	b78d                	j	1e28 <printInt+0x52>
    1ec8:	4682                	lw	a3,0(sp)
    1eca:	02d00793          	li	a5,45
    1ece:	4401                	li	s0,0
    1ed0:	fef68fa3          	sb	a5,-1(a3)
    1ed4:	ffe70793          	addi	a5,a4,-2
    1ed8:	c03e                	sw	a5,0(sp)
    1eda:	bf4d                	j	1e8c <printInt+0xb6>
    1edc:	33f1                	jal	1ca8 <printchar>
    1ede:	05800593          	li	a1,88
    1ee2:	b7e1                	j	1eaa <printInt+0xd4>

00001ee4 <printLongLongInt>:
    1ee4:	4501                	li	a0,0
    1ee6:	8082                	ret

00001ee8 <printDouble>:
    1ee8:	4501                	li	a0,0
    1eea:	8082                	ret

00001eec <print>:
    1eec:	fd810113          	addi	sp,sp,-40
    1ef0:	d022                	sw	s0,32(sp)
    1ef2:	ce26                	sw	s1,28(sp)
    1ef4:	d206                	sw	ra,36(sp)
    1ef6:	c42a                	sw	a0,8(sp)
    1ef8:	82ae                	mv	t0,a1
    1efa:	8432                	mv	s0,a2
    1efc:	c602                	sw	zero,12(sp)
    1efe:	4481                	li	s1,0
    1f00:	00028583          	lb	a1,0(t0)
    1f04:	ed89                	bnez	a1,1f1e <print+0x32>
    1f06:	47a2                	lw	a5,8(sp)
    1f08:	c781                	beqz	a5,1f10 <print+0x24>
    1f0a:	4581                	li	a1,0
    1f0c:	853e                	mv	a0,a5
    1f0e:	3b69                	jal	1ca8 <printchar>
    1f10:	5092                	lw	ra,36(sp)
    1f12:	5402                	lw	s0,32(sp)
    1f14:	8526                	mv	a0,s1
    1f16:	44f2                	lw	s1,28(sp)
    1f18:	02810113          	addi	sp,sp,40
    1f1c:	8082                	ret
    1f1e:	02500793          	li	a5,37
    1f22:	00f58863          	beq	a1,a5,1f32 <print+0x46>
    1f26:	4522                	lw	a0,8(sp)
    1f28:	c816                	sw	t0,16(sp)
    1f2a:	0485                	addi	s1,s1,1
    1f2c:	3bb5                	jal	1ca8 <printchar>
    1f2e:	42c2                	lw	t0,16(sp)
    1f30:	a839                	j	1f4e <print+0x62>
    1f32:	00128783          	lb	a5,1(t0)
    1f36:	00128713          	addi	a4,t0,1
    1f3a:	00b79c63          	bne	a5,a1,1f52 <print+0x66>
    1f3e:	4522                	lw	a0,8(sp)
    1f40:	02500593          	li	a1,37
    1f44:	c83a                	sw	a4,16(sp)
    1f46:	338d                	jal	1ca8 <printchar>
    1f48:	4742                	lw	a4,16(sp)
    1f4a:	0485                	addi	s1,s1,1
    1f4c:	82ba                	mv	t0,a4
    1f4e:	0285                	addi	t0,t0,1
    1f50:	bf45                	j	1f00 <print+0x14>
    1f52:	dbd5                	beqz	a5,1f06 <print+0x1a>
    1f54:	02b00693          	li	a3,43
    1f58:	04d78963          	beq	a5,a3,1faa <print+0xbe>
    1f5c:	00f6c863          	blt	a3,a5,1f6c <print+0x80>
    1f60:	02300693          	li	a3,35
    1f64:	04d78663          	beq	a5,a3,1fb0 <print+0xc4>
    1f68:	4781                	li	a5,0
    1f6a:	a005                	j	1f8a <print+0x9e>
    1f6c:	02d00693          	li	a3,45
    1f70:	00d78a63          	beq	a5,a3,1f84 <print+0x98>
    1f74:	03000693          	li	a3,48
    1f78:	fed798e3          	bne	a5,a3,1f68 <print+0x7c>
    1f7c:	00228713          	addi	a4,t0,2
    1f80:	4789                	li	a5,2
    1f82:	a021                	j	1f8a <print+0x9e>
    1f84:	00228713          	addi	a4,t0,2
    1f88:	4785                	li	a5,1
    1f8a:	00070683          	lb	a3,0(a4)
    1f8e:	02b00613          	li	a2,43
    1f92:	04c68363          	beq	a3,a2,1fd8 <print+0xec>
    1f96:	02d64163          	blt	a2,a3,1fb8 <print+0xcc>
    1f9a:	02300613          	li	a2,35
    1f9e:	02c68b63          	beq	a3,a2,1fd4 <print+0xe8>
    1fa2:	82ba                	mv	t0,a4
    1fa4:	4501                	li	a0,0
    1fa6:	46a5                	li	a3,9
    1fa8:	a081                	j	1fe8 <print+0xfc>
    1faa:	00228713          	addi	a4,t0,2
    1fae:	bf6d                	j	1f68 <print+0x7c>
    1fb0:	00228713          	addi	a4,t0,2
    1fb4:	4791                	li	a5,4
    1fb6:	bfd1                	j	1f8a <print+0x9e>
    1fb8:	02d00613          	li	a2,45
    1fbc:	00c68963          	beq	a3,a2,1fce <print+0xe2>
    1fc0:	03000613          	li	a2,48
    1fc4:	fcc69fe3          	bne	a3,a2,1fa2 <print+0xb6>
    1fc8:	0027e793          	ori	a5,a5,2
    1fcc:	a031                	j	1fd8 <print+0xec>
    1fce:	0705                	addi	a4,a4,1
    1fd0:	4785                	li	a5,1
    1fd2:	bfc1                	j	1fa2 <print+0xb6>
    1fd4:	0047e793          	ori	a5,a5,4
    1fd8:	0705                	addi	a4,a4,1
    1fda:	b7e1                	j	1fa2 <print+0xb6>
    1fdc:	00251613          	slli	a2,a0,0x2
    1fe0:	9532                	add	a0,a0,a2
    1fe2:	0506                	slli	a0,a0,0x1
    1fe4:	953a                	add	a0,a0,a4
    1fe6:	0285                	addi	t0,t0,1
    1fe8:	00028603          	lb	a2,0(t0)
    1fec:	fd060713          	addi	a4,a2,-48 # f8ffffd0 <__global_pointer$+0xd8fff790>
    1ff0:	0ff77593          	andi	a1,a4,255
    1ff4:	feb6f4e3          	bgeu	a3,a1,1fdc <print+0xf0>
    1ff8:	02e00713          	li	a4,46
    1ffc:	4699                	li	a3,6
    1ffe:	00e61e63          	bne	a2,a4,201a <print+0x12e>
    2002:	0285                	addi	t0,t0,1
    2004:	4681                	li	a3,0
    2006:	45a5                	li	a1,9
    2008:	00028603          	lb	a2,0(t0)
    200c:	fd060613          	addi	a2,a2,-48
    2010:	0ff67713          	andi	a4,a2,255
    2014:	02e5f563          	bgeu	a1,a4,203e <print+0x152>
    2018:	c636                	sw	a3,12(sp)
    201a:	00028703          	lb	a4,0(t0)
    201e:	06a00613          	li	a2,106
    2022:	0ac70d63          	beq	a4,a2,20dc <print+0x1f0>
    2026:	02e64363          	blt	a2,a4,204c <print+0x160>
    202a:	04c00613          	li	a2,76
    202e:	0ac70763          	beq	a4,a2,20dc <print+0x1f0>
    2032:	06800613          	li	a2,104
    2036:	08c70c63          	beq	a4,a2,20ce <print+0x1e2>
    203a:	4581                	li	a1,0
    203c:	a82d                	j	2076 <print+0x18a>
    203e:	00269713          	slli	a4,a3,0x2
    2042:	96ba                	add	a3,a3,a4
    2044:	0686                	slli	a3,a3,0x1
    2046:	96b2                	add	a3,a3,a2
    2048:	0285                	addi	t0,t0,1
    204a:	bf7d                	j	2008 <print+0x11c>
    204c:	07400613          	li	a2,116
    2050:	08c70663          	beq	a4,a2,20dc <print+0x1f0>
    2054:	07a00613          	li	a2,122
    2058:	08c70263          	beq	a4,a2,20dc <print+0x1f0>
    205c:	06c00613          	li	a2,108
    2060:	4581                	li	a1,0
    2062:	00c71a63          	bne	a4,a2,2076 <print+0x18a>
    2066:	00128603          	lb	a2,1(t0)
    206a:	458d                	li	a1,3
    206c:	00e61463          	bne	a2,a4,2074 <print+0x188>
    2070:	0285                	addi	t0,t0,1
    2072:	4591                	li	a1,4
    2074:	0285                	addi	t0,t0,1
    2076:	00028603          	lb	a2,0(t0)
    207a:	06000393          	li	t2,96
    207e:	06100713          	li	a4,97
    2082:	00c3c463          	blt	t2,a2,208a <print+0x19e>
    2086:	04100713          	li	a4,65
    208a:	06700393          	li	t2,103
    208e:	06c3c463          	blt	t2,a2,20f6 <print+0x20a>
    2092:	06500393          	li	t2,101
    2096:	18765563          	bge	a2,t2,2220 <print+0x334>
    209a:	04700393          	li	t2,71
    209e:	04c3c163          	blt	t2,a2,20e0 <print+0x1f4>
    20a2:	04500593          	li	a1,69
    20a6:	16b65d63          	bge	a2,a1,2220 <print+0x334>
    20aa:	04300713          	li	a4,67
    20ae:	eae610e3          	bne	a2,a4,1f4e <print+0x62>
    20b2:	4018                	lw	a4,0(s0)
    20b4:	00440393          	addi	t2,s0,4
    20b8:	ca16                	sw	t0,20(sp)
    20ba:	00e10c23          	sb	a4,24(sp)
    20be:	c81e                	sw	t2,16(sp)
    20c0:	00010ca3          	sb	zero,25(sp)
    20c4:	4701                	li	a4,0
    20c6:	86be                	mv	a3,a5
    20c8:	862a                	mv	a2,a0
    20ca:	082c                	addi	a1,sp,24
    20cc:	a849                	j	215e <print+0x272>
    20ce:	00128603          	lb	a2,1(t0)
    20d2:	4581                	li	a1,0
    20d4:	fae611e3          	bne	a2,a4,2076 <print+0x18a>
    20d8:	0289                	addi	t0,t0,2
    20da:	bf71                	j	2076 <print+0x18a>
    20dc:	0285                	addi	t0,t0,1
    20de:	bfb1                	j	203a <print+0x14e>
    20e0:	06300693          	li	a3,99
    20e4:	fcd607e3          	beq	a2,a3,20b2 <print+0x1c6>
    20e8:	06c6cf63          	blt	a3,a2,2166 <print+0x27a>
    20ec:	05800693          	li	a3,88
    20f0:	02d60363          	beq	a2,a3,2116 <print+0x22a>
    20f4:	bda9                	j	1f4e <print+0x62>
    20f6:	07300693          	li	a3,115
    20fa:	04d60463          	beq	a2,a3,2142 <print+0x256>
    20fe:	02c6cb63          	blt	a3,a2,2134 <print+0x248>
    2102:	06f00693          	li	a3,111
    2106:	0ed60463          	beq	a2,a3,21ee <print+0x302>
    210a:	07000693          	li	a3,112
    210e:	0047e793          	ori	a5,a5,4
    2112:	e2d61ee3          	bne	a2,a3,1f4e <print+0x62>
    2116:	4691                	li	a3,4
    2118:	0cd59163          	bne	a1,a3,21da <print+0x2ee>
    211c:	00840393          	addi	t2,s0,8
    2120:	400c                	lw	a1,0(s0)
    2122:	4050                	lw	a2,4(s0)
    2124:	ca16                	sw	t0,20(sp)
    2126:	c23a                	sw	a4,4(sp)
    2128:	c03e                	sw	a5,0(sp)
    212a:	c81e                	sw	t2,16(sp)
    212c:	87aa                	mv	a5,a0
    212e:	4701                	li	a4,0
    2130:	46c1                	li	a3,16
    2132:	a881                	j	2182 <print+0x296>
    2134:	07500693          	li	a3,117
    2138:	06d60a63          	beq	a2,a3,21ac <print+0x2c0>
    213c:	07800693          	li	a3,120
    2140:	bf45                	j	20f0 <print+0x204>
    2142:	4018                	lw	a4,0(s0)
    2144:	000036b7          	lui	a3,0x3
    2148:	00440393          	addi	t2,s0,4
    214c:	b1c68593          	addi	a1,a3,-1252 # 2b1c <memcpy+0x10c>
    2150:	c311                	beqz	a4,2154 <print+0x268>
    2152:	85ba                	mv	a1,a4
    2154:	4732                	lw	a4,12(sp)
    2156:	ca16                	sw	t0,20(sp)
    2158:	c81e                	sw	t2,16(sp)
    215a:	86be                	mv	a3,a5
    215c:	862a                	mv	a2,a0
    215e:	4522                	lw	a0,8(sp)
    2160:	b91ff0ef          	jal	ra,1cf0 <prints>
    2164:	a00d                	j	2186 <print+0x29a>
    2166:	4691                	li	a3,4
    2168:	02d59463          	bne	a1,a3,2190 <print+0x2a4>
    216c:	00840393          	addi	t2,s0,8
    2170:	400c                	lw	a1,0(s0)
    2172:	4050                	lw	a2,4(s0)
    2174:	ca16                	sw	t0,20(sp)
    2176:	c23a                	sw	a4,4(sp)
    2178:	c03e                	sw	a5,0(sp)
    217a:	c81e                	sw	t2,16(sp)
    217c:	87aa                	mv	a5,a0
    217e:	4705                	li	a4,1
    2180:	46a9                	li	a3,10
    2182:	4522                	lw	a0,8(sp)
    2184:	3385                	jal	1ee4 <printLongLongInt>
    2186:	43c2                	lw	t2,16(sp)
    2188:	94aa                	add	s1,s1,a0
    218a:	841e                	mv	s0,t2
    218c:	42d2                	lw	t0,20(sp)
    218e:	b3c1                	j	1f4e <print+0x62>
    2190:	46b2                	lw	a3,12(sp)
    2192:	400c                	lw	a1,0(s0)
    2194:	c816                	sw	t0,16(sp)
    2196:	c236                	sw	a3,4(sp)
    2198:	c03a                	sw	a4,0(sp)
    219a:	0411                	addi	s0,s0,4
    219c:	872a                	mv	a4,a0
    219e:	4685                	li	a3,1
    21a0:	4629                	li	a2,10
    21a2:	4522                	lw	a0,8(sp)
    21a4:	c33ff0ef          	jal	ra,1dd6 <printInt>
    21a8:	94aa                	add	s1,s1,a0
    21aa:	b351                	j	1f2e <print+0x42>
    21ac:	4691                	li	a3,4
    21ae:	00d59d63          	bne	a1,a3,21c8 <print+0x2dc>
    21b2:	00840393          	addi	t2,s0,8
    21b6:	400c                	lw	a1,0(s0)
    21b8:	4050                	lw	a2,4(s0)
    21ba:	ca16                	sw	t0,20(sp)
    21bc:	c23a                	sw	a4,4(sp)
    21be:	c03e                	sw	a5,0(sp)
    21c0:	c81e                	sw	t2,16(sp)
    21c2:	87aa                	mv	a5,a0
    21c4:	4701                	li	a4,0
    21c6:	bf6d                	j	2180 <print+0x294>
    21c8:	46b2                	lw	a3,12(sp)
    21ca:	400c                	lw	a1,0(s0)
    21cc:	c816                	sw	t0,16(sp)
    21ce:	c236                	sw	a3,4(sp)
    21d0:	c03a                	sw	a4,0(sp)
    21d2:	0411                	addi	s0,s0,4
    21d4:	872a                	mv	a4,a0
    21d6:	4681                	li	a3,0
    21d8:	b7e1                	j	21a0 <print+0x2b4>
    21da:	46b2                	lw	a3,12(sp)
    21dc:	c816                	sw	t0,16(sp)
    21de:	400c                	lw	a1,0(s0)
    21e0:	4641                	li	a2,16
    21e2:	c236                	sw	a3,4(sp)
    21e4:	c03a                	sw	a4,0(sp)
    21e6:	0411                	addi	s0,s0,4
    21e8:	872a                	mv	a4,a0
    21ea:	4681                	li	a3,0
    21ec:	bf5d                	j	21a2 <print+0x2b6>
    21ee:	4691                	li	a3,4
    21f0:	00d59e63          	bne	a1,a3,220c <print+0x320>
    21f4:	00840393          	addi	t2,s0,8
    21f8:	400c                	lw	a1,0(s0)
    21fa:	4050                	lw	a2,4(s0)
    21fc:	ca16                	sw	t0,20(sp)
    21fe:	c23a                	sw	a4,4(sp)
    2200:	c03e                	sw	a5,0(sp)
    2202:	c81e                	sw	t2,16(sp)
    2204:	87aa                	mv	a5,a0
    2206:	4701                	li	a4,0
    2208:	46a1                	li	a3,8
    220a:	bfa5                	j	2182 <print+0x296>
    220c:	46b2                	lw	a3,12(sp)
    220e:	400c                	lw	a1,0(s0)
    2210:	c816                	sw	t0,16(sp)
    2212:	c236                	sw	a3,4(sp)
    2214:	c03a                	sw	a4,0(sp)
    2216:	0411                	addi	s0,s0,4
    2218:	872a                	mv	a4,a0
    221a:	4681                	li	a3,0
    221c:	4621                	li	a2,8
    221e:	b751                	j	21a2 <print+0x2b6>
    2220:	400c                	lw	a1,0(s0)
    2222:	00840613          	addi	a2,s0,8
    2226:	4040                	lw	s0,4(s0)
    2228:	c23a                	sw	a4,4(sp)
    222a:	872a                	mv	a4,a0
    222c:	4522                	lw	a0,8(sp)
    222e:	c832                	sw	a2,16(sp)
    2230:	c03e                	sw	a5,0(sp)
    2232:	8622                	mv	a2,s0
    2234:	87b6                	mv	a5,a3
    2236:	46a9                	li	a3,10
    2238:	ca16                	sw	t0,20(sp)
    223a:	cafff0ef          	jal	ra,1ee8 <printDouble>
    223e:	94aa                	add	s1,s1,a0
    2240:	4442                	lw	s0,16(sp)
    2242:	b7a9                	j	218c <print+0x2a0>

00002244 <printf>:
    2244:	fdc10113          	addi	sp,sp,-36
    2248:	c82e                	sw	a1,16(sp)
    224a:	ca32                	sw	a2,20(sp)
    224c:	85aa                	mv	a1,a0
    224e:	0810                	addi	a2,sp,16
    2250:	4501                	li	a0,0
    2252:	c606                	sw	ra,12(sp)
    2254:	cc36                	sw	a3,24(sp)
    2256:	ce3a                	sw	a4,28(sp)
    2258:	d03e                	sw	a5,32(sp)
    225a:	c032                	sw	a2,0(sp)
    225c:	c91ff0ef          	jal	ra,1eec <print>
    2260:	40b2                	lw	ra,12(sp)
    2262:	02410113          	addi	sp,sp,36
    2266:	8082                	ret

00002268 <__mulsf3>:
    2268:	1101                	addi	sp,sp,-32
    226a:	cc22                	sw	s0,24(sp)
    226c:	01755413          	srli	s0,a0,0x17
    2270:	ca26                	sw	s1,20(sp)
    2272:	ce06                	sw	ra,28(sp)
    2274:	00951493          	slli	s1,a0,0x9
    2278:	0ff47413          	andi	s0,s0,255
    227c:	80a5                	srli	s1,s1,0x9
    227e:	01f55693          	srli	a3,a0,0x1f
    2282:	cc4d                	beqz	s0,233c <__mulsf3+0xd4>
    2284:	0ff00793          	li	a5,255
    2288:	0cf40c63          	beq	s0,a5,2360 <__mulsf3+0xf8>
    228c:	040007b7          	lui	a5,0x4000
    2290:	048e                	slli	s1,s1,0x3
    2292:	8cdd                	or	s1,s1,a5
    2294:	f8140413          	addi	s0,s0,-127
    2298:	4781                	li	a5,0
    229a:	4601                	li	a2,0
    229c:	0175d513          	srli	a0,a1,0x17
    22a0:	00959713          	slli	a4,a1,0x9
    22a4:	0ff57513          	andi	a0,a0,255
    22a8:	8325                	srli	a4,a4,0x9
    22aa:	81fd                	srli	a1,a1,0x1f
    22ac:	c54d                	beqz	a0,2356 <__mulsf3+0xee>
    22ae:	0ff00313          	li	t1,255
    22b2:	02650d63          	beq	a0,t1,22ec <__mulsf3+0x84>
    22b6:	070e                	slli	a4,a4,0x3
    22b8:	f8150513          	addi	a0,a0,-127
    22bc:	04000337          	lui	t1,0x4000
    22c0:	00676733          	or	a4,a4,t1
    22c4:	942a                	add	s0,s0,a0
    22c6:	4381                	li	t2,0
    22c8:	00140513          	addi	a0,s0,1
    22cc:	00b6c333          	xor	t1,a3,a1
    22d0:	c02a                	sw	a0,0(sp)
    22d2:	453d                	li	a0,15
    22d4:	829a                	mv	t0,t1
    22d6:	10f56263          	bltu	a0,a5,23da <__mulsf3+0x172>
    22da:	00001517          	auipc	a0,0x1
    22de:	84a50513          	addi	a0,a0,-1974 # 2b24 <memcpy+0x114>
    22e2:	078a                	slli	a5,a5,0x2
    22e4:	97aa                	add	a5,a5,a0
    22e6:	439c                	lw	a5,0(a5)
    22e8:	953e                	add	a0,a0,a5
    22ea:	8502                	jr	a0
    22ec:	0ff40413          	addi	s0,s0,255
    22f0:	eb61                	bnez	a4,23c0 <__mulsf3+0x158>
    22f2:	0027e793          	ori	a5,a5,2
    22f6:	4389                	li	t2,2
    22f8:	bfc1                	j	22c8 <__mulsf3+0x60>
    22fa:	4301                	li	t1,0
    22fc:	0ff00713          	li	a4,255
    2300:	004007b7          	lui	a5,0x400
    2304:	40f2                	lw	ra,28(sp)
    2306:	4462                	lw	s0,24(sp)
    2308:	07a6                	slli	a5,a5,0x9
    230a:	075e                	slli	a4,a4,0x17
    230c:	83a5                	srli	a5,a5,0x9
    230e:	01f31513          	slli	a0,t1,0x1f
    2312:	8fd9                	or	a5,a5,a4
    2314:	44d2                	lw	s1,20(sp)
    2316:	8d5d                	or	a0,a0,a5
    2318:	6105                	addi	sp,sp,32
    231a:	8082                	ret
    231c:	82ae                	mv	t0,a1
    231e:	84ba                	mv	s1,a4
    2320:	861e                	mv	a2,t2
    2322:	4789                	li	a5,2
    2324:	0af60663          	beq	a2,a5,23d0 <__mulsf3+0x168>
    2328:	478d                	li	a5,3
    232a:	fcf608e3          	beq	a2,a5,22fa <__mulsf3+0x92>
    232e:	4785                	li	a5,1
    2330:	8316                	mv	t1,t0
    2332:	1af61e63          	bne	a2,a5,24ee <__mulsf3+0x286>
    2336:	4701                	li	a4,0
    2338:	4781                	li	a5,0
    233a:	b7e9                	j	2304 <__mulsf3+0x9c>
    233c:	e0b5                	bnez	s1,23a0 <__mulsf3+0x138>
    233e:	0175d513          	srli	a0,a1,0x17
    2342:	00959713          	slli	a4,a1,0x9
    2346:	0ff57513          	andi	a0,a0,255
    234a:	4791                	li	a5,4
    234c:	4401                	li	s0,0
    234e:	4605                	li	a2,1
    2350:	8325                	srli	a4,a4,0x9
    2352:	81fd                	srli	a1,a1,0x1f
    2354:	fd29                	bnez	a0,22ae <__mulsf3+0x46>
    2356:	eb19                	bnez	a4,236c <__mulsf3+0x104>
    2358:	0017e793          	ori	a5,a5,1
    235c:	4385                	li	t2,1
    235e:	b7ad                	j	22c8 <__mulsf3+0x60>
    2360:	e89d                	bnez	s1,2396 <__mulsf3+0x12e>
    2362:	47a1                	li	a5,8
    2364:	0ff00413          	li	s0,255
    2368:	4609                	li	a2,2
    236a:	bf0d                	j	229c <__mulsf3+0x34>
    236c:	853a                	mv	a0,a4
    236e:	c832                	sw	a2,16(sp)
    2370:	c63e                	sw	a5,12(sp)
    2372:	c42e                	sw	a1,8(sp)
    2374:	c236                	sw	a3,4(sp)
    2376:	c03a                	sw	a4,0(sp)
    2378:	252d                	jal	29a2 <__clzsi2>
    237a:	4702                	lw	a4,0(sp)
    237c:	ffb50313          	addi	t1,a0,-5
    2380:	8c09                	sub	s0,s0,a0
    2382:	00671733          	sll	a4,a4,t1
    2386:	f8a40413          	addi	s0,s0,-118
    238a:	4381                	li	t2,0
    238c:	4692                	lw	a3,4(sp)
    238e:	45a2                	lw	a1,8(sp)
    2390:	47b2                	lw	a5,12(sp)
    2392:	4642                	lw	a2,16(sp)
    2394:	bf15                	j	22c8 <__mulsf3+0x60>
    2396:	47b1                	li	a5,12
    2398:	0ff00413          	li	s0,255
    239c:	460d                	li	a2,3
    239e:	bdfd                	j	229c <__mulsf3+0x34>
    23a0:	8526                	mv	a0,s1
    23a2:	c22e                	sw	a1,4(sp)
    23a4:	c036                	sw	a3,0(sp)
    23a6:	2bf5                	jal	29a2 <__clzsi2>
    23a8:	ffb50793          	addi	a5,a0,-5
    23ac:	f8a00413          	li	s0,-118
    23b0:	00f494b3          	sll	s1,s1,a5
    23b4:	8c09                	sub	s0,s0,a0
    23b6:	4781                	li	a5,0
    23b8:	4601                	li	a2,0
    23ba:	4682                	lw	a3,0(sp)
    23bc:	4592                	lw	a1,4(sp)
    23be:	bdf9                	j	229c <__mulsf3+0x34>
    23c0:	0037e793          	ori	a5,a5,3
    23c4:	438d                	li	t2,3
    23c6:	b709                	j	22c8 <__mulsf3+0x60>
    23c8:	4789                	li	a5,2
    23ca:	82b6                	mv	t0,a3
    23cc:	f4f61ee3          	bne	a2,a5,2328 <__mulsf3+0xc0>
    23d0:	8316                	mv	t1,t0
    23d2:	0ff00713          	li	a4,255
    23d6:	4781                	li	a5,0
    23d8:	b735                	j	2304 <__mulsf3+0x9c>
    23da:	67c1                	lui	a5,0x10
    23dc:	17fd                	addi	a5,a5,-1
    23de:	00f4f3b3          	and	t2,s1,a5
    23e2:	8ff9                	and	a5,a5,a4
    23e4:	80c1                	srli	s1,s1,0x10
    23e6:	8341                	srli	a4,a4,0x10
    23e8:	851e                	mv	a0,t2
    23ea:	85be                	mv	a1,a5
    23ec:	cc9fd0ef          	jal	ra,b4 <__mulsi3>
    23f0:	82aa                	mv	t0,a0
    23f2:	85ba                	mv	a1,a4
    23f4:	851e                	mv	a0,t2
    23f6:	cbffd0ef          	jal	ra,b4 <__mulsi3>
    23fa:	83aa                	mv	t2,a0
    23fc:	85be                	mv	a1,a5
    23fe:	8526                	mv	a0,s1
    2400:	cb5fd0ef          	jal	ra,b4 <__mulsi3>
    2404:	87aa                	mv	a5,a0
    2406:	85ba                	mv	a1,a4
    2408:	8526                	mv	a0,s1
    240a:	cabfd0ef          	jal	ra,b4 <__mulsi3>
    240e:	0102d713          	srli	a4,t0,0x10
    2412:	93be                	add	t2,t2,a5
    2414:	93ba                	add	t2,t2,a4
    2416:	00f3f463          	bgeu	t2,a5,241e <__mulsf3+0x1b6>
    241a:	67c1                	lui	a5,0x10
    241c:	953e                	add	a0,a0,a5
    241e:	67c1                	lui	a5,0x10
    2420:	17fd                	addi	a5,a5,-1
    2422:	00f3f4b3          	and	s1,t2,a5
    2426:	04c2                	slli	s1,s1,0x10
    2428:	00f2f2b3          	and	t0,t0,a5
    242c:	92a6                	add	t0,t0,s1
    242e:	00629493          	slli	s1,t0,0x6
    2432:	0103d393          	srli	t2,t2,0x10
    2436:	009034b3          	snez	s1,s1
    243a:	01a2d293          	srli	t0,t0,0x1a
    243e:	93aa                	add	t2,t2,a0
    2440:	0054e2b3          	or	t0,s1,t0
    2444:	00639493          	slli	s1,t2,0x6
    2448:	0054e4b3          	or	s1,s1,t0
    244c:	00449793          	slli	a5,s1,0x4
    2450:	0007d763          	bgez	a5,245e <__mulsf3+0x1f6>
    2454:	4402                	lw	s0,0(sp)
    2456:	0014d793          	srli	a5,s1,0x1
    245a:	8885                	andi	s1,s1,1
    245c:	8cdd                	or	s1,s1,a5
    245e:	07f40713          	addi	a4,s0,127
    2462:	02e05f63          	blez	a4,24a0 <__mulsf3+0x238>
    2466:	0074f793          	andi	a5,s1,7
    246a:	c799                	beqz	a5,2478 <__mulsf3+0x210>
    246c:	00f4f793          	andi	a5,s1,15
    2470:	4691                	li	a3,4
    2472:	00d78363          	beq	a5,a3,2478 <__mulsf3+0x210>
    2476:	0491                	addi	s1,s1,4
    2478:	00449793          	slli	a5,s1,0x4
    247c:	0007d863          	bgez	a5,248c <__mulsf3+0x224>
    2480:	f80007b7          	lui	a5,0xf8000
    2484:	17fd                	addi	a5,a5,-1
    2486:	8cfd                	and	s1,s1,a5
    2488:	08040713          	addi	a4,s0,128
    248c:	0fe00793          	li	a5,254
    2490:	04e7cb63          	blt	a5,a4,24e6 <__mulsf3+0x27e>
    2494:	00649793          	slli	a5,s1,0x6
    2498:	83a5                	srli	a5,a5,0x9
    249a:	0ff77713          	andi	a4,a4,255
    249e:	b59d                	j	2304 <__mulsf3+0x9c>
    24a0:	4785                	li	a5,1
    24a2:	40e786b3          	sub	a3,a5,a4
    24a6:	c711                	beqz	a4,24b2 <__mulsf3+0x24a>
    24a8:	466d                	li	a2,27
    24aa:	4701                	li	a4,0
    24ac:	4781                	li	a5,0
    24ae:	e4d64be3          	blt	a2,a3,2304 <__mulsf3+0x9c>
    24b2:	09e40413          	addi	s0,s0,158
    24b6:	00849433          	sll	s0,s1,s0
    24ba:	00d4d7b3          	srl	a5,s1,a3
    24be:	008034b3          	snez	s1,s0
    24c2:	8fc5                	or	a5,a5,s1
    24c4:	0077f713          	andi	a4,a5,7
    24c8:	c719                	beqz	a4,24d6 <__mulsf3+0x26e>
    24ca:	00f7f713          	andi	a4,a5,15
    24ce:	4691                	li	a3,4
    24d0:	00d70363          	beq	a4,a3,24d6 <__mulsf3+0x26e>
    24d4:	0791                	addi	a5,a5,4
    24d6:	00579713          	slli	a4,a5,0x5
    24da:	00074c63          	bltz	a4,24f2 <__mulsf3+0x28a>
    24de:	079a                	slli	a5,a5,0x6
    24e0:	83a5                	srli	a5,a5,0x9
    24e2:	4701                	li	a4,0
    24e4:	b505                	j	2304 <__mulsf3+0x9c>
    24e6:	0ff00713          	li	a4,255
    24ea:	4781                	li	a5,0
    24ec:	bd21                	j	2304 <__mulsf3+0x9c>
    24ee:	4402                	lw	s0,0(sp)
    24f0:	b7bd                	j	245e <__mulsf3+0x1f6>
    24f2:	4705                	li	a4,1
    24f4:	4781                	li	a5,0
    24f6:	b539                	j	2304 <__mulsf3+0x9c>

000024f8 <__subsf3>:
    24f8:	008006b7          	lui	a3,0x800
    24fc:	16fd                	addi	a3,a3,-1
    24fe:	1131                	addi	sp,sp,-20
    2500:	00a6f7b3          	and	a5,a3,a0
    2504:	01755713          	srli	a4,a0,0x17
    2508:	0175d613          	srli	a2,a1,0x17
    250c:	817d                	srli	a0,a0,0x1f
    250e:	0ff77713          	andi	a4,a4,255
    2512:	8eed                	and	a3,a3,a1
    2514:	c622                	sw	s0,12(sp)
    2516:	c426                	sw	s1,8(sp)
    2518:	0ff67613          	andi	a2,a2,255
    251c:	c806                	sw	ra,16(sp)
    251e:	0ff00393          	li	t2,255
    2522:	c23e                	sw	a5,4(sp)
    2524:	c02a                	sw	a0,0(sp)
    2526:	843a                	mv	s0,a4
    2528:	00379493          	slli	s1,a5,0x3
    252c:	81fd                	srli	a1,a1,0x1f
    252e:	00369293          	slli	t0,a3,0x3
    2532:	40c70333          	sub	t1,a4,a2
    2536:	10760363          	beq	a2,t2,263c <__subsf3+0x144>
    253a:	0015c593          	xori	a1,a1,1
    253e:	10b50e63          	beq	a0,a1,265a <__subsf3+0x162>
    2542:	0c605463          	blez	t1,260a <__subsf3+0x112>
    2546:	10061163          	bnez	a2,2648 <__subsf3+0x150>
    254a:	1e028863          	beqz	t0,273a <__subsf3+0x242>
    254e:	137d                	addi	t1,t1,-1
    2550:	405487b3          	sub	a5,s1,t0
    2554:	02030763          	beqz	t1,2582 <__subsf3+0x8a>
    2558:	0ff00793          	li	a5,255
    255c:	16f70b63          	beq	a4,a5,26d2 <__subsf3+0x1da>
    2560:	47ed                	li	a5,27
    2562:	2867ca63          	blt	a5,t1,27f6 <__subsf3+0x2fe>
    2566:	02000793          	li	a5,32
    256a:	406787b3          	sub	a5,a5,t1
    256e:	00f297b3          	sll	a5,t0,a5
    2572:	0062d333          	srl	t1,t0,t1
    2576:	00f037b3          	snez	a5,a5
    257a:	00f367b3          	or	a5,t1,a5
    257e:	40f487b3          	sub	a5,s1,a5
    2582:	00579713          	slli	a4,a5,0x5
    2586:	1a075463          	bgez	a4,272e <__subsf3+0x236>
    258a:	040004b7          	lui	s1,0x4000
    258e:	14fd                	addi	s1,s1,-1
    2590:	8fe5                	and	a5,a5,s1
    2592:	853e                	mv	a0,a5
    2594:	c23e                	sw	a5,4(sp)
    2596:	2131                	jal	29a2 <__clzsi2>
    2598:	4792                	lw	a5,4(sp)
    259a:	156d                	addi	a0,a0,-5
    259c:	00a797b3          	sll	a5,a5,a0
    25a0:	1c854163          	blt	a0,s0,2762 <__subsf3+0x26a>
    25a4:	8d01                	sub	a0,a0,s0
    25a6:	0505                	addi	a0,a0,1
    25a8:	02000293          	li	t0,32
    25ac:	40a282b3          	sub	t0,t0,a0
    25b0:	005792b3          	sll	t0,a5,t0
    25b4:	005032b3          	snez	t0,t0
    25b8:	00a7d7b3          	srl	a5,a5,a0
    25bc:	0057e7b3          	or	a5,a5,t0
    25c0:	4401                	li	s0,0
    25c2:	0077f713          	andi	a4,a5,7
    25c6:	c719                	beqz	a4,25d4 <__subsf3+0xdc>
    25c8:	00f7f713          	andi	a4,a5,15
    25cc:	4691                	li	a3,4
    25ce:	00d70363          	beq	a4,a3,25d4 <__subsf3+0xdc>
    25d2:	0791                	addi	a5,a5,4
    25d4:	00579713          	slli	a4,a5,0x5
    25d8:	14075f63          	bgez	a4,2736 <__subsf3+0x23e>
    25dc:	4682                	lw	a3,0(sp)
    25de:	0405                	addi	s0,s0,1
    25e0:	0ff00713          	li	a4,255
    25e4:	0016f513          	andi	a0,a3,1
    25e8:	16e40963          	beq	s0,a4,275a <__subsf3+0x262>
    25ec:	079a                	slli	a5,a5,0x6
    25ee:	83a5                	srli	a5,a5,0x9
    25f0:	0ff47713          	andi	a4,s0,255
    25f4:	40c2                	lw	ra,16(sp)
    25f6:	4432                	lw	s0,12(sp)
    25f8:	07a6                	slli	a5,a5,0x9
    25fa:	075e                	slli	a4,a4,0x17
    25fc:	83a5                	srli	a5,a5,0x9
    25fe:	057e                	slli	a0,a0,0x1f
    2600:	8f5d                	or	a4,a4,a5
    2602:	44a2                	lw	s1,8(sp)
    2604:	8d59                	or	a0,a0,a4
    2606:	0151                	addi	sp,sp,20
    2608:	8082                	ret
    260a:	0a031563          	bnez	t1,26b4 <__subsf3+0x1bc>
    260e:	00170613          	addi	a2,a4,1
    2612:	0fe67613          	andi	a2,a2,254
    2616:	16061163          	bnez	a2,2778 <__subsf3+0x280>
    261a:	22071363          	bnez	a4,2840 <__subsf3+0x348>
    261e:	20048063          	beqz	s1,281e <__subsf3+0x326>
    2622:	fc0289e3          	beqz	t0,25f4 <__subsf3+0xfc>
    2626:	405487b3          	sub	a5,s1,t0
    262a:	00579693          	slli	a3,a5,0x5
    262e:	2206d263          	bgez	a3,2852 <__subsf3+0x35a>
    2632:	409287b3          	sub	a5,t0,s1
    2636:	4401                	li	s0,0
    2638:	c02e                	sw	a1,0(sp)
    263a:	b761                	j	25c2 <__subsf3+0xca>
    263c:	ee028fe3          	beqz	t0,253a <__subsf3+0x42>
    2640:	0ab50d63          	beq	a0,a1,26fa <__subsf3+0x202>
    2644:	fc6053e3          	blez	t1,260a <__subsf3+0x112>
    2648:	0ff00793          	li	a5,255
    264c:	08f70363          	beq	a4,a5,26d2 <__subsf3+0x1da>
    2650:	040007b7          	lui	a5,0x4000
    2654:	00f2e2b3          	or	t0,t0,a5
    2658:	b721                	j	2560 <__subsf3+0x68>
    265a:	0a605063          	blez	t1,26fa <__subsf3+0x202>
    265e:	c251                	beqz	a2,26e2 <__subsf3+0x1ea>
    2660:	0ff00793          	li	a5,255
    2664:	06f70763          	beq	a4,a5,26d2 <__subsf3+0x1da>
    2668:	040007b7          	lui	a5,0x4000
    266c:	00f2e2b3          	or	t0,t0,a5
    2670:	47ed                	li	a5,27
    2672:	1c67cc63          	blt	a5,t1,284a <__subsf3+0x352>
    2676:	02000793          	li	a5,32
    267a:	406787b3          	sub	a5,a5,t1
    267e:	00f297b3          	sll	a5,t0,a5
    2682:	0062d333          	srl	t1,t0,t1
    2686:	00f037b3          	snez	a5,a5
    268a:	00f367b3          	or	a5,t1,a5
    268e:	97a6                	add	a5,a5,s1
    2690:	00579713          	slli	a4,a5,0x5
    2694:	08075d63          	bgez	a4,272e <__subsf3+0x236>
    2698:	0405                	addi	s0,s0,1
    269a:	0ff00713          	li	a4,255
    269e:	0ae40e63          	beq	s0,a4,275a <__subsf3+0x262>
    26a2:	7e0006b7          	lui	a3,0x7e000
    26a6:	0017d713          	srli	a4,a5,0x1
    26aa:	16fd                	addi	a3,a3,-1
    26ac:	8b85                	andi	a5,a5,1
    26ae:	8f75                	and	a4,a4,a3
    26b0:	8fd9                	or	a5,a5,a4
    26b2:	bf01                	j	25c2 <__subsf3+0xca>
    26b4:	40e607b3          	sub	a5,a2,a4
    26b8:	10071663          	bnez	a4,27c4 <__subsf3+0x2cc>
    26bc:	14048863          	beqz	s1,280c <__subsf3+0x314>
    26c0:	17fd                	addi	a5,a5,-1
    26c2:	18078e63          	beqz	a5,285e <__subsf3+0x366>
    26c6:	0ff00713          	li	a4,255
    26ca:	10e61463          	bne	a2,a4,27d2 <__subsf3+0x2da>
    26ce:	c02e                	sw	a1,0(sp)
    26d0:	c236                	sw	a3,4(sp)
    26d2:	4792                	lw	a5,4(sp)
    26d4:	c3c1                	beqz	a5,2754 <__subsf3+0x25c>
    26d6:	4501                	li	a0,0
    26d8:	0ff00713          	li	a4,255
    26dc:	004007b7          	lui	a5,0x400
    26e0:	bf11                	j	25f4 <__subsf3+0xfc>
    26e2:	04028c63          	beqz	t0,273a <__subsf3+0x242>
    26e6:	137d                	addi	t1,t1,-1
    26e8:	005487b3          	add	a5,s1,t0
    26ec:	fa0302e3          	beqz	t1,2690 <__subsf3+0x198>
    26f0:	0ff00793          	li	a5,255
    26f4:	f6f71ee3          	bne	a4,a5,2670 <__subsf3+0x178>
    26f8:	bfe9                	j	26d2 <__subsf3+0x1da>
    26fa:	08031b63          	bnez	t1,2790 <__subsf3+0x298>
    26fe:	00170413          	addi	s0,a4,1
    2702:	0fe47613          	andi	a2,s0,254
    2706:	12061163          	bnez	a2,2828 <__subsf3+0x330>
    270a:	10071563          	bnez	a4,2814 <__subsf3+0x31c>
    270e:	14048d63          	beqz	s1,2868 <__subsf3+0x370>
    2712:	ee0281e3          	beqz	t0,25f4 <__subsf3+0xfc>
    2716:	005487b3          	add	a5,s1,t0
    271a:	00579713          	slli	a4,a5,0x5
    271e:	4401                	li	s0,0
    2720:	00075763          	bgez	a4,272e <__subsf3+0x236>
    2724:	fc000737          	lui	a4,0xfc000
    2728:	177d                	addi	a4,a4,-1
    272a:	8ff9                	and	a5,a5,a4
    272c:	4405                	li	s0,1
    272e:	0077f713          	andi	a4,a5,7
    2732:	e8071be3          	bnez	a4,25c8 <__subsf3+0xd0>
    2736:	838d                	srli	a5,a5,0x3
    2738:	c23e                	sw	a5,4(sp)
    273a:	0ff00793          	li	a5,255
    273e:	f8f40ae3          	beq	s0,a5,26d2 <__subsf3+0x1da>
    2742:	4792                	lw	a5,4(sp)
    2744:	4682                	lw	a3,0(sp)
    2746:	0ff47713          	andi	a4,s0,255
    274a:	07a6                	slli	a5,a5,0x9
    274c:	83a5                	srli	a5,a5,0x9
    274e:	0016f513          	andi	a0,a3,1
    2752:	b54d                	j	25f4 <__subsf3+0xfc>
    2754:	4782                	lw	a5,0(sp)
    2756:	0017f513          	andi	a0,a5,1
    275a:	0ff00713          	li	a4,255
    275e:	4781                	li	a5,0
    2760:	bd51                	j	25f4 <__subsf3+0xfc>
    2762:	fc0002b7          	lui	t0,0xfc000
    2766:	12fd                	addi	t0,t0,-1
    2768:	0057f7b3          	and	a5,a5,t0
    276c:	0077f713          	andi	a4,a5,7
    2770:	8c09                	sub	s0,s0,a0
    2772:	e4071be3          	bnez	a4,25c8 <__subsf3+0xd0>
    2776:	b7c1                	j	2736 <__subsf3+0x23e>
    2778:	405487b3          	sub	a5,s1,t0
    277c:	00579713          	slli	a4,a5,0x5
    2780:	0a074c63          	bltz	a4,2838 <__subsf3+0x340>
    2784:	e00797e3          	bnez	a5,2592 <__subsf3+0x9a>
    2788:	4501                	li	a0,0
    278a:	4701                	li	a4,0
    278c:	4781                	li	a5,0
    278e:	b59d                	j	25f4 <__subsf3+0xfc>
    2790:	40e607b3          	sub	a5,a2,a4
    2794:	c33d                	beqz	a4,27fa <__subsf3+0x302>
    2796:	0ff00713          	li	a4,255
    279a:	f2e60be3          	beq	a2,a4,26d0 <__subsf3+0x1d8>
    279e:	04000737          	lui	a4,0x4000
    27a2:	8cd9                	or	s1,s1,a4
    27a4:	476d                	li	a4,27
    27a6:	0cf74663          	blt	a4,a5,2872 <__subsf3+0x37a>
    27aa:	02000713          	li	a4,32
    27ae:	8f1d                	sub	a4,a4,a5
    27b0:	00e49733          	sll	a4,s1,a4
    27b4:	00f4d7b3          	srl	a5,s1,a5
    27b8:	00e03733          	snez	a4,a4
    27bc:	8fd9                	or	a5,a5,a4
    27be:	9796                	add	a5,a5,t0
    27c0:	8432                	mv	s0,a2
    27c2:	b5f9                	j	2690 <__subsf3+0x198>
    27c4:	0ff00713          	li	a4,255
    27c8:	f0e603e3          	beq	a2,a4,26ce <__subsf3+0x1d6>
    27cc:	04000737          	lui	a4,0x4000
    27d0:	8cd9                	or	s1,s1,a4
    27d2:	476d                	li	a4,27
    27d4:	06f74d63          	blt	a4,a5,284e <__subsf3+0x356>
    27d8:	02000713          	li	a4,32
    27dc:	8f1d                	sub	a4,a4,a5
    27de:	00e49733          	sll	a4,s1,a4
    27e2:	00f4d7b3          	srl	a5,s1,a5
    27e6:	00e03733          	snez	a4,a4
    27ea:	8fd9                	or	a5,a5,a4
    27ec:	40f287b3          	sub	a5,t0,a5
    27f0:	8432                	mv	s0,a2
    27f2:	c02e                	sw	a1,0(sp)
    27f4:	b379                	j	2582 <__subsf3+0x8a>
    27f6:	4785                	li	a5,1
    27f8:	b359                	j	257e <__subsf3+0x86>
    27fa:	c8ad                	beqz	s1,286c <__subsf3+0x374>
    27fc:	17fd                	addi	a5,a5,-1
    27fe:	cfa5                	beqz	a5,2876 <__subsf3+0x37e>
    2800:	0ff00713          	li	a4,255
    2804:	fae610e3          	bne	a2,a4,27a4 <__subsf3+0x2ac>
    2808:	c236                	sw	a3,4(sp)
    280a:	b5e1                	j	26d2 <__subsf3+0x1da>
    280c:	c236                	sw	a3,4(sp)
    280e:	8432                	mv	s0,a2
    2810:	c02e                	sw	a1,0(sp)
    2812:	b725                	j	273a <__subsf3+0x242>
    2814:	ea048ee3          	beqz	s1,26d0 <__subsf3+0x1d8>
    2818:	ea028de3          	beqz	t0,26d2 <__subsf3+0x1da>
    281c:	bd6d                	j	26d6 <__subsf3+0x1de>
    281e:	02028d63          	beqz	t0,2858 <__subsf3+0x360>
    2822:	852e                	mv	a0,a1
    2824:	87b6                	mv	a5,a3
    2826:	b3f9                	j	25f4 <__subsf3+0xfc>
    2828:	0ff00793          	li	a5,255
    282c:	f2f407e3          	beq	s0,a5,275a <__subsf3+0x262>
    2830:	005487b3          	add	a5,s1,t0
    2834:	8385                	srli	a5,a5,0x1
    2836:	bde5                	j	272e <__subsf3+0x236>
    2838:	409287b3          	sub	a5,t0,s1
    283c:	c02e                	sw	a1,0(sp)
    283e:	bb91                	j	2592 <__subsf3+0x9a>
    2840:	fce1                	bnez	s1,2818 <__subsf3+0x320>
    2842:	e8028ae3          	beqz	t0,26d6 <__subsf3+0x1de>
    2846:	c02e                	sw	a1,0(sp)
    2848:	b561                	j	26d0 <__subsf3+0x1d8>
    284a:	4785                	li	a5,1
    284c:	b589                	j	268e <__subsf3+0x196>
    284e:	4785                	li	a5,1
    2850:	bf71                	j	27ec <__subsf3+0x2f4>
    2852:	4401                	li	s0,0
    2854:	ec079de3          	bnez	a5,272e <__subsf3+0x236>
    2858:	4501                	li	a0,0
    285a:	4781                	li	a5,0
    285c:	bb61                	j	25f4 <__subsf3+0xfc>
    285e:	409287b3          	sub	a5,t0,s1
    2862:	8432                	mv	s0,a2
    2864:	c02e                	sw	a1,0(sp)
    2866:	bb31                	j	2582 <__subsf3+0x8a>
    2868:	87b6                	mv	a5,a3
    286a:	b369                	j	25f4 <__subsf3+0xfc>
    286c:	c236                	sw	a3,4(sp)
    286e:	8432                	mv	s0,a2
    2870:	b5e9                	j	273a <__subsf3+0x242>
    2872:	4785                	li	a5,1
    2874:	b7a9                	j	27be <__subsf3+0x2c6>
    2876:	005487b3          	add	a5,s1,t0
    287a:	8432                	mv	s0,a2
    287c:	bd11                	j	2690 <__subsf3+0x198>

0000287e <__fixunssfsi>:
    287e:	01755713          	srli	a4,a0,0x17
    2882:	00800637          	lui	a2,0x800
    2886:	fff60793          	addi	a5,a2,-1 # 7fffff <_data_lma+0x7fd39b>
    288a:	0ff77713          	andi	a4,a4,255
    288e:	07e00593          	li	a1,126
    2892:	00a7f6b3          	and	a3,a5,a0
    2896:	01f55793          	srli	a5,a0,0x1f
    289a:	4501                	li	a0,0
    289c:	00e5f463          	bgeu	a1,a4,28a4 <__fixunssfsi+0x26>
    28a0:	c399                	beqz	a5,28a6 <__fixunssfsi+0x28>
    28a2:	8082                	ret
    28a4:	8082                	ret
    28a6:	09e00793          	li	a5,158
    28aa:	557d                	li	a0,-1
    28ac:	fee7ebe3          	bltu	a5,a4,28a2 <__fixunssfsi+0x24>
    28b0:	09500593          	li	a1,149
    28b4:	00c6e7b3          	or	a5,a3,a2
    28b8:	00e5d763          	bge	a1,a4,28c6 <__fixunssfsi+0x48>
    28bc:	f6a70713          	addi	a4,a4,-150 # 3ffff6a <_data_lma+0x3ffd306>
    28c0:	00e79533          	sll	a0,a5,a4
    28c4:	8082                	ret
    28c6:	09600513          	li	a0,150
    28ca:	40e50733          	sub	a4,a0,a4
    28ce:	00e7d533          	srl	a0,a5,a4
    28d2:	8082                	ret

000028d4 <__floatunsisf>:
    28d4:	1151                	addi	sp,sp,-12
    28d6:	c406                	sw	ra,8(sp)
    28d8:	c222                	sw	s0,4(sp)
    28da:	cd15                	beqz	a0,2916 <__floatunsisf+0x42>
    28dc:	842a                	mv	s0,a0
    28de:	20d1                	jal	29a2 <__clzsi2>
    28e0:	09e00793          	li	a5,158
    28e4:	40a78733          	sub	a4,a5,a0
    28e8:	09600793          	li	a5,150
    28ec:	04e7c063          	blt	a5,a4,292c <__floatunsisf+0x58>
    28f0:	46a1                	li	a3,8
    28f2:	0ff77793          	andi	a5,a4,255
    28f6:	00a6d563          	bge	a3,a0,2900 <__floatunsisf+0x2c>
    28fa:	1561                	addi	a0,a0,-8
    28fc:	00a41433          	sll	s0,s0,a0
    2900:	0426                	slli	s0,s0,0x9
    2902:	8025                	srli	s0,s0,0x9
    2904:	0426                	slli	s0,s0,0x9
    2906:	00945513          	srli	a0,s0,0x9
    290a:	40a2                	lw	ra,8(sp)
    290c:	4412                	lw	s0,4(sp)
    290e:	07de                	slli	a5,a5,0x17
    2910:	8d5d                	or	a0,a0,a5
    2912:	0131                	addi	sp,sp,12
    2914:	8082                	ret
    2916:	4401                	li	s0,0
    2918:	0426                	slli	s0,s0,0x9
    291a:	00945513          	srli	a0,s0,0x9
    291e:	40a2                	lw	ra,8(sp)
    2920:	4412                	lw	s0,4(sp)
    2922:	4781                	li	a5,0
    2924:	07de                	slli	a5,a5,0x17
    2926:	8d5d                	or	a0,a0,a5
    2928:	0131                	addi	sp,sp,12
    292a:	8082                	ret
    292c:	09900793          	li	a5,153
    2930:	00e7dd63          	bge	a5,a4,294a <__floatunsisf+0x76>
    2934:	01b50693          	addi	a3,a0,27
    2938:	4795                	li	a5,5
    293a:	00d416b3          	sll	a3,s0,a3
    293e:	8f89                	sub	a5,a5,a0
    2940:	00d036b3          	snez	a3,a3
    2944:	00f45433          	srl	s0,s0,a5
    2948:	8c55                	or	s0,s0,a3
    294a:	4795                	li	a5,5
    294c:	00a7d663          	bge	a5,a0,2958 <__floatunsisf+0x84>
    2950:	ffb50793          	addi	a5,a0,-5
    2954:	00f41433          	sll	s0,s0,a5
    2958:	fc0006b7          	lui	a3,0xfc000
    295c:	16fd                	addi	a3,a3,-1
    295e:	00747793          	andi	a5,s0,7
    2962:	00d47633          	and	a2,s0,a3
    2966:	c385                	beqz	a5,2986 <__floatunsisf+0xb2>
    2968:	00f47793          	andi	a5,s0,15
    296c:	4591                	li	a1,4
    296e:	00b78c63          	beq	a5,a1,2986 <__floatunsisf+0xb2>
    2972:	0611                	addi	a2,a2,4
    2974:	00561793          	slli	a5,a2,0x5
    2978:	0007d763          	bgez	a5,2986 <__floatunsisf+0xb2>
    297c:	09f00793          	li	a5,159
    2980:	8e75                	and	a2,a2,a3
    2982:	40a78733          	sub	a4,a5,a0
    2986:	00661413          	slli	s0,a2,0x6
    298a:	8025                	srli	s0,s0,0x9
    298c:	0426                	slli	s0,s0,0x9
    298e:	00945513          	srli	a0,s0,0x9
    2992:	40a2                	lw	ra,8(sp)
    2994:	4412                	lw	s0,4(sp)
    2996:	0ff77793          	andi	a5,a4,255
    299a:	07de                	slli	a5,a5,0x17
    299c:	8d5d                	or	a0,a0,a5
    299e:	0131                	addi	sp,sp,12
    29a0:	8082                	ret

000029a2 <__clzsi2>:
    29a2:	67c1                	lui	a5,0x10
    29a4:	02f57c63          	bgeu	a0,a5,29dc <__clzsi2+0x3a>
    29a8:	0ff00793          	li	a5,255
    29ac:	02000713          	li	a4,32
    29b0:	00a7eb63          	bltu	a5,a0,29c6 <__clzsi2+0x24>
    29b4:	00000797          	auipc	a5,0x0
    29b8:	1b078793          	addi	a5,a5,432 # 2b64 <__clz_tab>
    29bc:	97aa                	add	a5,a5,a0
    29be:	2388                	lbu	a0,0(a5)
    29c0:	40a70533          	sub	a0,a4,a0
    29c4:	8082                	ret
    29c6:	8121                	srli	a0,a0,0x8
    29c8:	00000797          	auipc	a5,0x0
    29cc:	19c78793          	addi	a5,a5,412 # 2b64 <__clz_tab>
    29d0:	97aa                	add	a5,a5,a0
    29d2:	2388                	lbu	a0,0(a5)
    29d4:	4761                	li	a4,24
    29d6:	40a70533          	sub	a0,a4,a0
    29da:	8082                	ret
    29dc:	010007b7          	lui	a5,0x1000
    29e0:	00f56d63          	bltu	a0,a5,29fa <__clzsi2+0x58>
    29e4:	8161                	srli	a0,a0,0x18
    29e6:	00000797          	auipc	a5,0x0
    29ea:	17e78793          	addi	a5,a5,382 # 2b64 <__clz_tab>
    29ee:	97aa                	add	a5,a5,a0
    29f0:	2388                	lbu	a0,0(a5)
    29f2:	4721                	li	a4,8
    29f4:	40a70533          	sub	a0,a4,a0
    29f8:	8082                	ret
    29fa:	8141                	srli	a0,a0,0x10
    29fc:	00000797          	auipc	a5,0x0
    2a00:	16878793          	addi	a5,a5,360 # 2b64 <__clz_tab>
    2a04:	97aa                	add	a5,a5,a0
    2a06:	2388                	lbu	a0,0(a5)
    2a08:	4741                	li	a4,16
    2a0a:	40a70533          	sub	a0,a4,a0
    2a0e:	8082                	ret

00002a10 <memcpy>:
    2a10:	00a5c7b3          	xor	a5,a1,a0
    2a14:	8b8d                	andi	a5,a5,3
    2a16:	00c50733          	add	a4,a0,a2
    2a1a:	e781                	bnez	a5,2a22 <memcpy+0x12>
    2a1c:	478d                	li	a5,3
    2a1e:	02c7e763          	bltu	a5,a2,2a4c <memcpy+0x3c>
    2a22:	87aa                	mv	a5,a0
    2a24:	0ae57e63          	bgeu	a0,a4,2ae0 <memcpy+0xd0>
    2a28:	2194                	lbu	a3,0(a1)
    2a2a:	0785                	addi	a5,a5,1
    2a2c:	0585                	addi	a1,a1,1
    2a2e:	fed78fa3          	sb	a3,-1(a5)
    2a32:	fee7ebe3          	bltu	a5,a4,2a28 <memcpy+0x18>
    2a36:	8082                	ret
    2a38:	2194                	lbu	a3,0(a1)
    2a3a:	0785                	addi	a5,a5,1
    2a3c:	0585                	addi	a1,a1,1
    2a3e:	fed78fa3          	sb	a3,-1(a5)
    2a42:	fee7ebe3          	bltu	a5,a4,2a38 <memcpy+0x28>
    2a46:	4402                	lw	s0,0(sp)
    2a48:	0111                	addi	sp,sp,4
    2a4a:	8082                	ret
    2a4c:	00357693          	andi	a3,a0,3
    2a50:	87aa                	mv	a5,a0
    2a52:	ca89                	beqz	a3,2a64 <memcpy+0x54>
    2a54:	2194                	lbu	a3,0(a1)
    2a56:	0785                	addi	a5,a5,1
    2a58:	0585                	addi	a1,a1,1
    2a5a:	fed78fa3          	sb	a3,-1(a5)
    2a5e:	0037f693          	andi	a3,a5,3
    2a62:	bfc5                	j	2a52 <memcpy+0x42>
    2a64:	ffc77693          	andi	a3,a4,-4
    2a68:	fe068613          	addi	a2,a3,-32 # fbffffe0 <__global_pointer$+0xdbfff7a0>
    2a6c:	06c7f563          	bgeu	a5,a2,2ad6 <memcpy+0xc6>
    2a70:	1171                	addi	sp,sp,-4
    2a72:	c022                	sw	s0,0(sp)
    2a74:	49c0                	lw	s0,20(a1)
    2a76:	0005a303          	lw	t1,0(a1)
    2a7a:	0085a383          	lw	t2,8(a1)
    2a7e:	cbc0                	sw	s0,20(a5)
    2a80:	4d80                	lw	s0,24(a1)
    2a82:	0067a023          	sw	t1,0(a5)
    2a86:	0045a303          	lw	t1,4(a1)
    2a8a:	cf80                	sw	s0,24(a5)
    2a8c:	4dc0                	lw	s0,28(a1)
    2a8e:	0067a223          	sw	t1,4(a5)
    2a92:	00c5a283          	lw	t0,12(a1)
    2a96:	0105a303          	lw	t1,16(a1)
    2a9a:	02458593          	addi	a1,a1,36
    2a9e:	cfc0                	sw	s0,28(a5)
    2aa0:	ffc5a403          	lw	s0,-4(a1)
    2aa4:	0077a423          	sw	t2,8(a5)
    2aa8:	0057a623          	sw	t0,12(a5)
    2aac:	0067a823          	sw	t1,16(a5)
    2ab0:	02478793          	addi	a5,a5,36
    2ab4:	fe87ae23          	sw	s0,-4(a5)
    2ab8:	fac7eee3          	bltu	a5,a2,2a74 <memcpy+0x64>
    2abc:	f8d7f3e3          	bgeu	a5,a3,2a42 <memcpy+0x32>
    2ac0:	4190                	lw	a2,0(a1)
    2ac2:	0791                	addi	a5,a5,4
    2ac4:	0591                	addi	a1,a1,4
    2ac6:	fec7ae23          	sw	a2,-4(a5)
    2aca:	bfcd                	j	2abc <memcpy+0xac>
    2acc:	4190                	lw	a2,0(a1)
    2ace:	0791                	addi	a5,a5,4
    2ad0:	0591                	addi	a1,a1,4
    2ad2:	fec7ae23          	sw	a2,-4(a5)
    2ad6:	fed7ebe3          	bltu	a5,a3,2acc <memcpy+0xbc>
    2ada:	f4e7e7e3          	bltu	a5,a4,2a28 <memcpy+0x18>
    2ade:	8082                	ret
    2ae0:	8082                	ret
    2ae2:	0000                	unimp
    2ae4:	0000                	unimp
    2ae6:	42c8                	lw	a0,4(a3)
    2ae8:	0000                	unimp
    2aea:	0000432f          	0x432f
    2aee:	3780                	lbu	s0,9(a5)
    2af0:	0000                	unimp
    2af2:	4234                	lw	a3,64(a2)
    2af4:	6e49                	lui	t3,0x12
    2af6:	6176                	flw	ft2,92(sp)
    2af8:	696c                	flw	fa1,84(a0)
    2afa:	2064                	lbu	s1,6(s0)
    2afc:	20435243          	fmadd.s	ft4,ft6,ft4,ft4,unknown
    2b00:	7830                	flw	fa2,112(s0)
    2b02:	3025                	jal	232a <__mulsf3+0xc2>
    2b04:	7832                	flw	fa6,44(sp)
    2b06:	202c                	lbu	a1,2(s0)
    2b08:	7865                	lui	a6,0xffff9
    2b0a:	6570                	flw	fa2,76(a0)
    2b0c:	64657463          	bgeu	a0,t1,3154 <_data_lma+0x4f0>
    2b10:	3020                	lbu	s0,3(s0)
    2b12:	2578                	lbu	a4,14(a0)
    2b14:	3230                	lbu	a2,3(a2)
    2b16:	2a78                	lbu	a4,22(a2)
    2b18:	0a0d                	addi	s4,s4,3
    2b1a:	0000                	unimp
    2b1c:	6e28                	flw	fa0,88(a2)
    2b1e:	6c75                	lui	s8,0x1d
    2b20:	296c                	lbu	a1,22(a0)
    2b22:	0000                	unimp
    2b24:	f8b6                	fsw	fa3,112(sp)
    2b26:	ffff                	0xffff
    2b28:	f7fa                	fsw	ft10,236(sp)
    2b2a:	ffff                	0xffff
    2b2c:	f7fa                	fsw	ft10,236(sp)
    2b2e:	ffff                	0xffff
    2b30:	f7f8                	fsw	fa4,108(a5)
    2b32:	ffff                	0xffff
    2b34:	f7fe                	fsw	ft11,236(sp)
    2b36:	ffff                	0xffff
    2b38:	f7fe                	fsw	ft11,236(sp)
    2b3a:	ffff                	0xffff
    2b3c:	f7d6                	fsw	fs5,236(sp)
    2b3e:	ffff                	0xffff
    2b40:	f7f8                	fsw	fa4,108(a5)
    2b42:	ffff                	0xffff
    2b44:	f7fe                	fsw	ft11,236(sp)
    2b46:	ffff                	0xffff
    2b48:	f7d6                	fsw	fs5,236(sp)
    2b4a:	ffff                	0xffff
    2b4c:	f7fe                	fsw	ft11,236(sp)
    2b4e:	ffff                	0xffff
    2b50:	f7f8                	fsw	fa4,108(a5)
    2b52:	ffff                	0xffff
    2b54:	f8a4                	fsw	fs1,112(s1)
    2b56:	ffff                	0xffff
    2b58:	f8a4                	fsw	fs1,112(s1)
    2b5a:	ffff                	0xffff
    2b5c:	f8a4                	fsw	fs1,112(s1)
    2b5e:	ffff                	0xffff
    2b60:	f7d6                	fsw	fs5,236(sp)
    2b62:	ffff                	0xffff

00002b64 <__clz_tab>:
    2b64:	0100 0202 0303 0303 0404 0404 0404 0404     ................
    2b74:	0505 0505 0505 0505 0505 0505 0505 0505     ................
    2b84:	0606 0606 0606 0606 0606 0606 0606 0606     ................
    2b94:	0606 0606 0606 0606 0606 0606 0606 0606     ................
    2ba4:	0707 0707 0707 0707 0707 0707 0707 0707     ................
    2bb4:	0707 0707 0707 0707 0707 0707 0707 0707     ................
    2bc4:	0707 0707 0707 0707 0707 0707 0707 0707     ................
    2bd4:	0707 0707 0707 0707 0707 0707 0707 0707     ................
    2be4:	0808 0808 0808 0808 0808 0808 0808 0808     ................
    2bf4:	0808 0808 0808 0808 0808 0808 0808 0808     ................
    2c04:	0808 0808 0808 0808 0808 0808 0808 0808     ................
    2c14:	0808 0808 0808 0808 0808 0808 0808 0808     ................
    2c24:	0808 0808 0808 0808 0808 0808 0808 0808     ................
    2c34:	0808 0808 0808 0808 0808 0808 0808 0808     ................
    2c44:	0808 0808 0808 0808 0808 0808 0808 0808     ................
    2c54:	0808 0808 0808 0808 0808 0808 0808 0808     ................
